(dp0
I11
(lp1
I214717089
aI214821371
aI214743335
aI214563337
aI214819762
aI214826837
aI214821275
aI214717436
aI214706462
asI12
(lp2
I214717867
asI21
(lp3
I214548744
aI214838503
asI33
(lp4
I214834865
aI214571188
aI214706441
aI214820225
asI46
(lp5
I214716932
asI87
(lp6
I214819760
aI214840483
aI214586694
aI214819430
aI214717286
aI214820392
aI214652220
aI214695127
aI214555500
aI214554637
aI214601229
aI214819376
aI214718385
aI214821300
aI214826837
aI214558807
aI214553844
aI214717850
aI214826908
aI214743369
asI103
(lp7
I214748293
asI138
(lp8
I214594592
aI214594633
aI214601010
aI214601015
asI181
(lp9
I214820231
asI182
(lp10
I214535621
asI189
(lp11
I214613865
aI214613870
asI197
(lp12
I214839313
aI214774685
aI214839997
asI216
(lp13
I214821277
asI253
(lp14
I214685152
aI214837762
aI214837764
aI214544945
aI214544936
aI214743341
aI214716341
aI214709685
aI214839257
aI214837820
aI214837749
asI277
(lp15
I214537856
aI214536577
aI214537826
aI214579749
aI214612760
aI214580790
aI214512152
aI214836960
aI214836958
asI291
(lp16
I214684513
aI214839373
asI293
(lp17
I214826705
aI214826803
aI214821285
aI214820383
asI319
(lp18
I214600625
asI324
(lp19
I214835585
aI214833800
aI214587785
aI214833802
aI214584939
aI214538030
aI214835760
aI214840599
aI214587800
aI214832730
asI333
(lp20
I214827062
asI367
(lp21
I214821290
asI382
(lp22
I214534852
asI396
(lp23
I214826801
aI214651670
aI214744265
asI408
(lp24
I214594680
asI432
(lp25
I214717730
aI214717757
aI214687742
aI214833782
aI214709807
asI449
(lp26
I214819552
aI214821030
aI214833802
aI214832557
aI214832559
aI214821017
aI214718169
aI214718203
aI214821020
aI214821022
asI484
(lp27
I214836761
aI214691428
aI214691293
aI214691390
asI507
(lp28
I214821024
aI214717498
aI214567005
asI536
(lp29
I214821024
aI214832557
aI214821022
aI214832559
asI556
(lp30
I214826801
aI214826803
aI214821277
aI214821285
asI593
(lp31
I214826705
aI214821290
aI214585395
asI602
(lp32
I214819562
asI612
(lp33
I214753507
asI618
(lp34
I214718203
aI214821022
aI214821390
aI214821015
asI636
(lp35
I214684513
asI651
(lp36
I214677440
aI214516033
aI214716930
aI214716932
aI214718117
aI214716935
aI214544327
aI214714732
aI214639149
aI214554510
aI214709597
aI214711952
aI214838833
aI214581427
aI214712270
aI214710294
aI214712017
aI214690845
aI214516031
asI656
(lp37
I214716928
aI214716984
aI214832655
aI214832657
aI214717007
asI664
(lp38
I214829312
aI214643045
aI214546121
aI214746386
aI214684115
aI214546102
aI214839997
asI669
(lp39
I214551917
asI688
(lp40
I214840762
aI214586983
asI692
(lp41
I214684730
asI708
(lp42
I214687642
aI214586711
asI714
(lp43
I214636517
aI214532072
aI214565512
aI214839313
aI214839995
aI214839999
asI728
(lp44
I214821277
asI737
(lp45
I214536392
aI214833800
aI214835578
asI742
(lp46
I214539842
aI214587643
aI214539845
asI826
(lp47
I214753505
asI827
(lp48
I214711078
aI214718398
aI214711082
aI214819406
aI214711087
aI214711408
aI214820190
aI214711318
aI214820186
aI214718396
aI214684730
aI214684734
asI838
(lp49
I214601040
aI214601042
asI841
(lp50
I214716930
aI214832655
aI214832653
aI214716935
asI873
(lp51
I214717312
aI214820252
asI877
(lp52
I214826816
aI214691426
aI214687685
aI214838503
aI214821290
aI214712107
aI214826608
aI214826801
aI214536502
aI214664919
aI214826747
aI214821277
asI899
(lp53
I214829257
aI214710075
asI932
(lp54
I214826627
aI214800262
aI214826955
aI214709741
aI214826906
aI214819738
asI937
(lp55
I214841006
asI954
(lp56
I214821272
aI214827020
aI214827030
asI959
(lp57
I214642560
aI214821373
aI214577302
aI214748287
asI966
(lp58
I214826878
aI214716982
aI214545935
asI986
(lp59
I214601805
asI1018
(lp60
I214545928
asI1021
(lp61
I214835900
aI214838462
asI1046
(lp62
I214791682
aI214819719
aI214716937
aI214716939
aI214712844
aI214711322
aI214595994
aI214709666
aI214696997
aI214743335
aI214707883
aI214602802
aI214581551
aI214819762
aI214550366
aI214712137
aI214554431
aI214717507
aI214819468
aI214669899
aI214826829
aI214826833
aI214669790
aI214717003
aI214712681
aI214668270
asI1052
(lp63
I214551890
asI1112
(lp64
I214819410
aI214685820
asI1128
(lp65
I214698577
aI214698581
asI1167
(lp66
I214840762
aI214535038
aI214535006
asI1187
(lp67
I214826715
aI214826606
asI1218
(lp68
I214725508
aI214820231
asI1253
(lp69
I214678526
asI1274
(lp70
I214688668
aI214691117
asI1311
(lp71
I214534241
asI1326
(lp72
I214826816
aI214826829
asI1372
(lp73
I214554982
aI214640017
aI214826837
aI214826615
aI214826617
aI214826619
aI214826621
asI1426
(lp74
I214821296
aI214709585
aI214585138
aI214820231
asI1434
(lp75
I214537967
asI1446
(lp76
I214820240
aI214744530
aI214820237
aI214553855
asI1457
(lp77
I214644352
aI214706432
aI214680515
aI214835141
aI214706460
aI214708657
aI214701682
aI214701684
aI214710328
aI214835450
aI214678524
aI214821277
aI214708095
asI1484
(lp78
I214717860
asI1503
(lp79
I214685792
aI214552385
aI214553735
aI214612940
aI214685422
aI214821296
aI214510712
aI214844312
aI214844023
aI214639192
aI214533050
aI214685754
aI214552382
asI1504
(lp80
I214819376
aI214717890
aI214819526
aI214744775
aI214820392
aI214819721
aI214667912
aI214745323
aI214820396
aI214712130
aI214826799
aI214820400
aI214748336
aI214820402
aI214706102
aI214826953
aI214819762
asI1508
(lp81
I214716928
aI214716930
aI214717003
aI214832655
aI214717007
asI1511
(lp82
I214543494
asI1562
(lp83
I214717612
aI214717614
asI1591
(lp84
I214640407
asI1639
(lp85
I214706460
aI214821028
asI1647
(lp86
I214821277
asI1656
(lp87
I214821305
aI214821315
aI214821277
asI1673
(lp88
I214826801
aI214826700
aI214821277
aI214826702
asI1713
(lp89
I214827000
aI214826925
asI1721
(lp90
I214575491
aI214708239
asI1722
(lp91
I214821290
aI214821277
asI1746
(lp92
I214821367
asI1762
(lp93
I214839740
asI1769
(lp94
I214717003
aI214564652
aI214835120
aI214600535
aI214704182
aI214713847
aI214838366
aI214713823
asI1779
(lp95
I214709792
asI1812
(lp96
I214826810
asI1821
(lp97
I214718197
asI1834
(lp98
I214839313
aI214839999
asI1877
(lp99
I214826803
aI214820383
asI1896
(lp100
I214827022
asI1958
(lp101
I214716928
aI214717003
asI1962
(lp102
I214826925
aI214821341
aI214834865
aI214827026
aI214827000
aI214821305
aI214821307
aI214827005
aI214827007
asI1983
(lp103
I214541548
aI214691117
aI214573582
aI214691188
aI214691150
aI214688630
aI214651455
asI2012
(lp104
I214839313
aI214839995
aI214839997
aI214839999
asI2023
(lp105
I214819796
asI2033
(lp106
I214748338
asI2071
(lp107
I214826801
aI214826955
aI214826627
aI214826606
aI214826623
asI2076
(lp108
I214841060
aI214535621
aI214841640
aI214841006
aI214602834
aI214826803
aI214585397
aI214594678
aI214716984
aI214826810
asI2077
(lp109
I214531937
aI214547042
aI214532567
asI2098
(lp110
I214820261
asI2101
(lp111
I214712240
aI214819798
asI2103
(lp112
I214717286
aI214586694
aI214826876
aI214820402
aI214826837
aI214826872
aI214668185
aI214826908
asI2118
(lp113
I214573168
aI214706147
aI214557268
asI2153
(lp114
I214839752
aI214685424
aI214536435
asI2168
(lp115
I214821277
aI214820231
asI2184
(lp116
I214567376
aI214826835
aI214826955
aI214826715
asI2237
(lp117
I214716980
aI214832653
aI214716975
asI2256
(lp118
I214839313
aI214839995
aI214839997
aI214552543
aI214839999
asI2358
(lp119
I214639074
aI214716643
aI214530500
aI214639080
aI214819530
aI214826891
aI214514285
aI214514287
aI214839313
aI214513170
aI214508563
aI214700885
aI214717271
aI214711965
aI214531550
asI2377
(lp120
I214839313
asI2381
(lp121
I214840762
asI2397
(lp122
I214585395
aI214583947
aI214587590
aI214640424
aI214826889
aI214821290
aI214826955
aI214839731
aI214554350
aI214587437
aI214826835
aI214821369
aI214821277
aI214553855
asI2398
(lp123
I214820456
aI214652970
aI214744779
aI214746380
aI214708370
aI214534704
aI214534706
aI214836789
aI214821015
aI214783357
aI214819550
aI214748287
asI2409
(lp124
I214820233
aI214698465
aI214820231
aI214820261
aI214698577
asI2422
(lp125
I214834865
aI214714794
aI214651427
aI214827026
aI214663127
asI2426
(lp126
I214827020
aI214827030
asI2449
(lp127
I214819490
aI214596107
asI2458
(lp128
I214839313
asI2467
(lp129
I214826816
asI2474
(lp130
I214534704
asI2501
(lp131
I214582502
asI2514
(lp132
I214509125
asI2518
(lp133
I214835713
aI214684843
aI214753515
aI214716110
aI214713007
aI214819376
aI214532107
aI214819762
aI214706462
aI214725532
aI214713022
asI2547
(lp134
I214840483
asI2553
(lp135
I214573059
aI214821272
aI214718203
aI214842292
aI214821390
asI2593
(lp136
I214708303
asI2619
(lp137
I214716928
aI214826625
aI214716667
aI214691396
aI214820261
aI214717003
aI214717005
aI214691332
aI214717007
aI214819376
aI214820441
aI214826715
aI214716926
asI2642
(lp138
I214842600
aI214843470
asI2666
(lp139
I214709160
aI214702912
aI214646780
aI214646550
aI214646542
asI2714
(lp140
I214841006
asI2732
(lp141
I214819760
aI214743335
asI2743
(lp142
I214826897
aI214821277
asI2756
(lp143
I214677746
asI2758
(lp144
I214821015
aI214832559
asI2794
(lp145
I214826627
aI214826900
asI2797
(lp146
I214826627
aI214686900
aI214686902
aI214718398
asI2808
(lp147
I214835760
aI214587609
aI214833802
aI214835732
aI214832730
asI2834
(lp148
I214838368
aI214716960
aI214716962
aI214716939
aI214716977
aI214716937
aI214717867
aI214717007
aI214832657
aI214716945
aI214716928
aI214716969
aI214716958
asI2859
(lp149
I214530690
aI214676578
aI214606408
aI214712237
aI214575210
aI214712235
aI214835117
aI214602605
aI214835120
aI214577492
aI214835285
aI214600989
aI214676574
asI2887
(lp150
I214691426
aI214753691
asI2957
(lp151
I214684093
asI2963
(lp152
I214578176
aI214716982
aI214602703
aI214639987
aI214684757
aI214820214
aI214716984
aI214576892
asI2984
(lp153
I214639280
aI214677596
aI214639226
aI214678076
asI2998
(lp154
I214553730
aI214585395
aI214685422
asI3024
(lp155
I214821024
aI214832559
asI3029
(lp156
I214819760
aI214820392
aI214820396
aI214800268
aI214819376
aI214587697
aI214819762
aI214725532
asI3038
(lp157
I214717888
aI214563335
aI214714760
aI214829737
aI214560140
aI214832557
aI214819472
aI214835197
asI3056
(lp158
I214716973
aI214594678
asI3061
(lp159
I214829257
aI214684757
asI3066
(lp160
I214553580
asI3074
(lp161
I214551776
aI214715107
aI214705610
aI214717003
aI214836757
aI214843374
aI214832655
aI214629315
aI214744629
aI214705494
aI214638712
aI214695097
aI214820186
aI214651580
aI214715102
aI214539039
asI3084
(lp162
I214572264
aI214832557
aI214821397
asI3112
(lp163
I214551905
aI214826619
aI214826908
asI3116
(lp164
I214819721
aI214820938
aI214826955
aI214705100
aI214826702
aI214748336
aI214612730
aI214826623
aI214843871
asI3191
(lp165
I214691426
aI214840813
asI3241
(lp166
I214585395
asI3264
(lp167
I214835120
aI214511015
aI214600989
aI214712237
asI3302
(lp168
I214542761
aI214696434
asI3323
(lp169
I214840867
aI214691428
aI214840871
aI214840873
aI214508563
aI214600734
asI3331
(lp170
I214563238
asI3342
(lp171
I214718203
aI214821390
asI3398
(lp172
I214712537
asI3421
(lp173
I214820192
aI214826625
aI214674690
aI214826627
aI214674688
aI214844297
aI214826955
aI214674695
aI214664919
aI214708370
aI214536502
aI214691383
aI214820441
aI214826715
asI3436
(lp174
I214838070
asI3443
(lp175
I214676387
asI3453
(lp176
I214552449
aI214553762
aI214826801
aI214841640
aI214820392
aI214826803
aI214821013
aI214821275
aI214701212
aI214820383
asI3456
(lp177
I214711074
aI214684715
aI214744260
aI214706437
aI214819627
aI214826893
aI214711310
aI214717507
aI214711438
aI214695195
aI214684702
aI214714757
asI3468
(lp178
I214826803
aI214821285
asI3474
(lp179
I214710131
aI214684093
aI214685795
asI3517
(lp180
I214714880
aI214702826
aI214774685
asI3568
(lp181
I214841640
aI214826803
asI3608
(lp182
I214826803
aI214821285
asI3624
(lp183
I214829312
aI214827030
aI214692600
aI214574777
aI214630042
aI214700990
asI3626
(lp184
I214645618
asI3634
(lp185
I214684513
asI3681
(lp186
I214667912
aI214819721
aI214748336
aI214820402
aI214791635
aI214706102
aI214826876
asI3687
(lp187
I214516768
aI214509984
aI214826955
aI214826606
aI214716752
aI214579378
aI214826835
aI214840526
aI214516790
aI214826715
aI214826844
aI214826623
asI3751
(lp188
I214800272
aI214718117
aI214800268
aI214819376
aI214783350
aI214826908
aI214819550
asI3776
(lp189
I214840483
asI3778
(lp190
I214540035
aI214639177
aI214577711
aI214819800
aI214575491
aI214578007
aI214517880
aI214708239
asI3787
(lp191
I214716986
aI214717005
aI214716941
asI3801
(lp192
I214709735
aI214820237
aI214709645
asI3811
(lp193
I214834865
aI214684610
aI214821277
aI214658038
aI214820231
asI3836
(lp194
I214748291
aI214753507
asI3841
(lp195
I214832655
asI3852
(lp196
I214684513
aI214718409
aI214555890
aI214836975
asI3857
(lp197
I214819562
aI214826803
aI214553743
aI214821285
aI214820383
asI3871
(lp198
I214827030
asI3889
(lp199
I214826912
aI214684942
aI214716671
aI214834865
aI214563133
aI214827000
aI214828987
aI214827005
aI214827007
asI3891
(lp200
I214551808
aI214695425
aI214551810
aI214820231
aI214843661
aI214843667
aI214826900
aI214586645
aI214586651
aI214821277
aI214586655
aI214836129
aI214551842
aI214516005
aI214714663
aI214546089
aI214821290
aI214551815
aI214579762
aI214826799
aI214821298
aI214551860
aI214820383
aI214645187
aI214683973
aI214701135
aI214706000
aI214658019
aI214551894
aI214684025
aI214684252
aI214551909
aI214716512
aI214684258
aI214536547
aI214835557
aI214551855
aI214684020
aI214645239
aI214832660
aI214636794
asI3894
(lp201
I214644317
asI3899
(lp202
I214832728
asI3918
(lp203
I214684513
aI214836821
asI3929
(lp204
I214716467
aI214515883
aI214826891
asI3948
(lp205
I214821290
aI214821292
aI214821277
asI3958
(lp206
I214646578
aI214551907
asI3962
(lp207
I214601535
asI3987
(lp208
I214695412
aI214673295
asI4023
(lp209
I214630042
aI214686086
asI4032
(lp210
I214551913
aI214674772
asI4034
(lp211
I214826829
asI4036
(lp212
I214640096
aI214538276
aI214652265
aI214578230
aI214600824
aI214652957
asI4069
(lp213
I214819376
aI214717115
asI4083
(lp214
I214835775
asI4088
(lp215
I214826810
aI214827035
aI214717860
aI214826702
asI4102
(lp216
I214711569
asI4159
(lp217
I214744528
aI214743497
aI214837003
aI214821277
aI214821279
asI4176
(lp218
I214656324
aI214696243
aI214712908
asI4183
(lp219
I214629900
aI214827024
aI214821298
aI214716467
aI214826612
aI214717877
aI214826615
aI214821272
aI214712124
aI214820415
asI4206
(lp220
I214656281
aI214821377
aI214832557
aI214832559
asI4207
(lp221
I214840792
aI214691482
aI214691484
asI4258
(lp222
I214514278
asI4266
(lp223
I214706432
aI214821028
asI4318
(lp224
I214826816
aI214821292
aI214685422
aI214826705
aI214826702
aI214820413
asI4328
(lp225
I214753507
aI214748300
asI4333
(lp226
I214821272
aI214827020
aI214551909
asI4346
(lp227
I214594680
asI4349
(lp228
I214717312
aI214554785
aI214688098
aI214510820
aI214582485
aI214537415
aI214820252
aI214717003
aI214552194
aI214558160
aI214656290
aI214602386
aI214559317
aI214836793
aI214510783
aI214648380
aI214648415
asI4359
(lp229
I214688098
aI214746339
aI214572264
aI214586722
aI214663166
aI214539253
aI214539260
aI214684382
aI214705119
asI4362
(lp230
I214827009
asI4382
(lp231
I214819393
aI214717890
aI214565475
aI214691557
aI214601034
aI214769291
aI214838957
aI214831663
aI214691632
aI214556595
aI214691255
aI214821017
aI214691679
asI4402
(lp232
I214841640
aI214826803
asI4429
(lp233
I214691426
aI214691319
aI214691293
aI214839791
asI4436
(lp234
I214535683
asI4451
(lp235
I214826627
aI214821285
aI214821290
aI214821037
aI214840762
aI214821277
asI4453
(lp236
I214748338
asI4544
(lp237
I214717003
aI214716926
asI4547
(lp238
I214821290
aI214821292
aI214821277
aI214820383
asI4549
(lp239
I214839313
asI4579
(lp240
I214829282
aI214636389
aI214746410
aI214702796
aI214549346
aI214833309
aI214716930
aI214749939
aI214545879
aI214819547
aI214706205
asI4648
(lp241
I214532147
asI4652
(lp242
I214836718
aI214836722
aI214836748
aI214836750
aI214717318
asI4657
(lp243
I214839313
asI4721
(lp244
I214601034
aI214705530
aI214829285
asI4744
(lp245
I214826835
aI214826955
aI214691390
aI214826799
asI4746
(lp246
I214832653
asI4749
(lp247
I214821290
aI214821277
asI4759
(lp248
I214717890
aI214718117
aI214820396
aI214819376
aI214819762
aI214819382
asI4761
(lp249
I214819376
asI4767
(lp250
I214644960
asI4806
(lp251
I214826627
aI214687685
aI214530665
aI214712235
aI214712237
aI214827022
aI214581489
aI214826606
aI214743515
asI4809
(lp252
I214844002
aI214843556
aI214842442
aI214843565
aI214843472
aI214840914
aI214843481
aI214844004
aI214843550
asI4821
(lp253
I214826810
asI4832
(lp254
I214839313
aI214717003
aI214716926
asI4834
(lp255
I214530665
aI214826835
aI214743515
aI214712237
aI214540070
asI4868
(lp256
I214543040
aI214601060
aI214697137
aI214708648
aI214697130
aI214572973
aI214585597
aI214582385
aI214513363
aI214554585
aI214827032
aI214606777
aI214717412
asI4873
(lp257
I214716984
aI214832657
aI214826705
asI4884
(lp258
I214827022
asI4914
(lp259
I214821292
asI4943
(lp260
I214717003
asI4944
(lp261
I214716928
aI214819719
aI214716939
aI214819468
aI214716943
aI214716952
aI214827032
aI214664861
aI214692776
aI214697130
aI214716971
aI214819760
aI214697137
aI214820402
aI214716990
aI214717003
aI214717005
aI214717007
aI214826833
aI214838364
aI214820447
aI214680945
aI214554358
asI4982
(lp262
I214690110
aI214680718
asI4988
(lp263
I214839313
aI214839999
asI4992
(lp264
I214823908
aI214821315
aI214716932
asI4993
(lp265
I214835713
aI214512611
aI214534601
aI214530703
aI214835120
aI214530705
aI214680371
aI214704180
aI214835285
aI214600989
asI5002
(lp266
I214717867
aI214716982
asI5038
(lp267
I214585633
aI214554967
aI214839311
asI5058
(lp268
I214609445
asI5074
(lp269
I214748336
aI214820392
aI214725532
asI5091
(lp270
I214702895
asI5099
(lp271
I214717001
aI214716986
aI214716980
asI5136
(lp272
I214594680
aI214594678
asI5172
(lp273
I214705991
asI5177
(lp274
I214691428
asI5189
(lp275
I214716928
aI214684513
aI214820938
aI214839371
aI214718252
aI214832559
aI214717007
asI5213
(lp276
I214553936
aI214639616
asI5226
(lp277
I214645316
aI214589606
aI214538951
aI214538985
aI214538992
aI214832274
aI214538820
aI214551748
aI214826747
asI5239
(lp278
I214717888
asI5258
(lp279
I214820192
aI214844297
asI5272
(lp280
I214821277
asI5274
(lp281
I214826889
aI214826700
aI214717877
aI214826615
aI214826617
aI214826619
aI214826876
aI214826621
aI214712126
aI214826623
asI5291
(lp282
I214717286
aI214558160
aI214826837
aI214557367
aI214821272
aI214826876
aI214691197
asI5296
(lp283
I214748336
aI214821392
aI214829810
aI214840483
asI5316
(lp284
I214826955
aI214826627
asI5321
(lp285
I214602699
asI5332
(lp286
I214699888
aI214645385
aI214645391
aI214538597
aI214645575
asI5488
(lp287
I214697182
asI5492
(lp288
I214594680
aI214594678
asI5496
(lp289
I214536928
aI214691587
aI214820261
aI214509000
aI214820233
aI214600652
aI214535621
asI5503
(lp290
I214821313
aI214821302
aI214586711
asI5541
(lp291
I214821380
aI214821373
aI214821037
asI5572
(lp292
I214836930
aI214512262
aI214718409
aI214511696
aI214555890
aI214738451
asI5578
(lp293
I214691587
aI214691557
aI214587307
aI214691645
aI214691480
aI214691255
aI214840824
aI214843449
aI214691677
asI5582
(lp294
I214535681
aI214826627
aI214535685
aI214551630
aI214586711
aI214821305
aI214535675
aI214535677
aI214973182
asI5587
(lp295
I214748338
aI214748293
asI5603
(lp296
I214819490
aI214743367
asI5623
(lp297
I214826608
aI214826810
aI214826835
aI214826606
asI5653
(lp298
I214684513
asI5664
(lp299
I214840762
asI5687
(lp300
I214839313
aI214709634
aI214839995
asI5688
(lp301
I214835561
aI214576787
aI214531372
asI5689
(lp302
I214836129
asI5717
(lp303
I214716928
aI214716930
aI214716932
aI214554358
aI214716935
aI214819468
aI214677566
aI214716982
aI214716984
aI214695065
aI214536187
aI214533022
aI214695071
asI5719
(lp304
I214517450
aI214526190
aI214714927
aI214714929
aI214517454
aI214523606
aI214523709
asI5732
(lp305
I214586692
asI5744
(lp306
I214711318
aI214684734
aI214711087
asI5761
(lp307
I214718400
aI214716928
aI214717003
aI214694987
aI214694964
aI214695099
aI214746365
asI5769
(lp308
I214537967
asI5802
(lp309
I214573865
aI214687642
aI214819772
asI5823
(lp310
I214838244
aI214842345
aI214791635
aI214842296
aI214716924
aI214842399
asI5841
(lp311
I214538002
aI214536890
aI214536883
aI214536892
aI214537997
asI5882
(lp312
I214820458
aI214835677
aI214835634
aI214710101
aI214748287
asI5889
(lp313
I214641825
aI214695013
aI214718321
aI214695015
asI5922
(lp314
I214584992
aI214584986
aI214584980
aI214716982
asI5926
(lp315
I214821290
aI214820231
aI214821277
aI214821285
asI5927
(lp316
I214716937
asI5942
(lp317
I214843498
aI214829285
aI214826702
asI5952
(lp318
I214554967
asI5971
(lp319
I214601197
asI5984
(lp320
I214579704
aI214738449
aI214800266
aI214820252
aI214836722
asI5988
(lp321
I214601197
asI6013
(lp322
I214587384
aI214832557
asI6016
(lp323
I214613645
aI214841006
asI6078
(lp324
I214717007
asI6084
(lp325
I214537070
aI214697915
aI214746365
aI214826606
asI6086
(lp326
I214600472
aI214820387
aI214821020
asI6101
(lp327
I214687685
aI214819472
aI214819734
aI214819736
aI214819738
aI214819387
aI214819740
asI6103
(lp328
I214601040
aI214601042
asI6116
(lp329
I214674752
aI214645348
aI214645097
aI214645010
aI214645042
aI214717751
asI6141
(lp330
I214612708
aI214834886
aI214716973
aI214612751
aI214821339
aI214533020
asI6148
(lp331
I214587307
aI214584815
asI6151
(lp332
I214832653
asI6161
(lp333
I214586625
aI214705991
aI214534689
aI214582541
aI214584817
aI214601812
aI214584821
aI214537494
aI214584830
asI6187
(lp334
I214696434
asI6202
(lp335
I214716926
asI6208
(lp336
I214530502
aI214695167
asI6211
(lp337
I214827035
aI214746365
aI214643814
aI214554519
asI6223
(lp338
I214585288
aI214832550
asI6238
(lp339
I214706460
aI214567404
aI214819472
aI214826715
aI214819740
aI214535006
asI6281
(lp340
I214712272
asI6284
(lp341
I214820842
asI6294
(lp342
I214696434
asI6327
(lp343
I214826715
aI214826893
asI6343
(lp344
I214510854
aI214510805
aI214717310
asI6353
(lp345
I214708027
aI214650566
aI214560615
aI214819374
aI214826617
aI214556025
aI214650587
aI214826621
asI6356
(lp346
I214748295
asI6362
(lp347
I214674772
aI214551917
asI6372
(lp348
I214685857
aI214557095
aI214657318
aI214819719
aI214821032
aI214743369
aI214819464
aI214743495
aI214600492
aI214554765
aI214640017
aI214716120
aI214783352
aI214717562
aI214572234
asI6388
(lp349
I214826627
aI214613861
aI214663942
aI214613863
aI214613865
aI214826955
aI214680459
aI214613870
aI214826835
asI6398
(lp350
I214557270
asI6401
(lp351
I214821388
asI6409
(lp352
I214716928
aI214717005
aI214716926
asI6434
(lp353
I214684093
asI6447
(lp354
I214821290
aI214821277
asI6464
(lp355
I214834892
asI6473
(lp356
I214819552
aI214829282
aI214819562
aI214821388
aI214821015
aI214821017
aI214819547
aI214821020
aI214821022
asI6486
(lp357
I214827009
aI214835216
aI214716202
aI214744528
aI214826810
aI214716234
asI6528
(lp358
I214557416
aI214753513
aI214748338
asI6551
(lp359
I214748334
asI6569
(lp360
I214821024
aI214567408
aI214748265
aI214718160
aI214718169
aI214567005
aI214821022
asI6586
(lp361
I214714717
aI214712278
asI6617
(lp362
I214612704
aI214551617
aI214533026
aI214551626
aI214551630
aI214821341
aI214551632
aI214612920
aI214821305
aI214821309
asI6628
(lp363
I214827009
aI214714721
aI214821277
aI214821300
aI214826619
aI214826621
asI6653
(lp364
I214820441
aI214684513
asI6662
(lp365
I214753513
aI214748300
asI6677
(lp366
I214834946
aI214684745
aI214533026
aI214551630
aI214576783
aI214687702
asI6707
(lp367
I214716982
asI6709
(lp368
I214820392
aI214819691
aI214573357
aI214748336
aI214819382
aI214586743
aI214717850
asI6716
(lp369
I214717822
asI6746
(lp370
I214821296
asI6773
(lp371
I214748291
asI6807
(lp372
I214821305
asI6838
(lp373
I214680371
aI214712235
asI6839
(lp374
I214510854
aI214510875
aI214820252
aI214510805
aI214582502
asI6889
(lp375
I214748297
aI214748300
aI214748302
asI6933
(lp376
I214516040
aI214687985
asI6948
(lp377
I214819395
aI214826844
aI214684717
asI6958
(lp378
I214839371
aI214838460
aI214839851
aI214607186
aI214835900
aI214838462
asI6967
(lp379
I214826912
aI214717286
aI214684841
aI214640017
aI214821401
aI214826908
asI6972
(lp380
I214826608
aI214826816
aI214553730
aI214821285
aI214821277
asI7002
(lp381
I214551917
asI7054
(lp382
I214826606
asI7071
(lp383
I214826700
aI214821292
aI214821277
asI7074
(lp384
I214585633
aI214554967
asI7112
(lp385
I214826803
aI214821285
asI7124
(lp386
I214774685
asI7173
(lp387
I214819376
aI214826837
asI7176
(lp388
I214602832
aI214684513
aI214640475
aI214839377
asI7189
(lp389
I214839313
aI214839995
asI7191
(lp390
I214517880
asI7197
(lp391
I214704182
asI7201
(lp392
I214826955
aI214826891
aI214826829
aI214826606
asI7214
(lp393
I214716984
aI214832653
asI7219
(lp394
I214577495
asI7237
(lp395
I214587898
asI7299
(lp396
I214695073
asI7324
(lp397
I214651427
aI214629302
aI214629382
aI214532777
aI214837005
aI214532782
aI214577518
aI214837046
aI214629272
aI214837050
aI214629373
asI7341
(lp398
I214821305
aI214586711
asI7368
(lp399
I214839313
aI214840001
aI214826615
aI214839997
aI214839999
asI7396
(lp400
I214612777
aI214612785
asI7406
(lp401
I214581489
aI214712235
aI214602605
aI214826715
asI7408
(lp402
I214536440
asI7418
(lp403
I214744530
asI7442
(lp404
I214840762
asI7468
(lp405
I214709666
aI214820197
aI214744775
aI214820199
aI214581551
aI214820210
asI7507
(lp406
I214684513
asI7579
(lp407
I214839313
asI7593
(lp408
I214820233
aI214535621
asI7607
(lp409
I214574150
aI214718207
asI7622
(lp410
I214821024
aI214819552
aI214685795
aI214667912
aI214832557
aI214716909
aI214587384
aI214819547
asI7644
(lp411
I214680369
aI214600989
asI7656
(lp412
I214581761
aI214840762
aI214586805
aI214596446
asI7681
(lp413
I214826803
asI7717
(lp414
I214832557
asI7732
(lp415
I214631008
aI214839313
asI7742
(lp416
I214594678
asI7746
(lp417
I214743350
asI7798
(lp418
I214711556
aI214555910
aI214698759
aI214563337
aI214717847
aI214821279
aI214554662
aI214554283
aI214832559
aI214819382
aI214698761
aI214832709
aI214561991
aI214669768
aI214829257
aI214820938
aI214715218
aI214536281
aI214714721
aI214553572
aI214712687
aI214646512
aI214642805
asI7836
(lp419
I214684115
asI7866
(lp420
I214718169
aI214708370
aI214840483
aI214706460
aI214821022
asI7896
(lp421
I214749840
aI214712113
aI214826897
aI214709681
asI7901
(lp422
I214601040
asI7903
(lp423
I214572182
asI7907
(lp424
I214717012
aI214716939
aI214716956
asI7916
(lp425
I214709666
aI214820396
aI214744775
asI7921
(lp426
I214716928
aI214717003
aI214717005
aI214717007
asI7964
(lp427
I214748300
aI214748293
asI7967
(lp428
I214826816
aI214826955
aI214826700
aI214826606
aI214826705
aI214691390
asI7968
(lp429
I214602380
aI214695268
aI214600637
aI214602470
aI214602495
asI7986
(lp430
I214601040
aI214601042
asI7996
(lp431
I214510805
asI7998
(lp432
I214706432
aI214821028
aI214706460
asI8006
(lp433
I214716930
asI8011
(lp434
I214827000
aI214826912
aI214827026
aI214651427
aI214827005
asI8029
(lp435
I214696997
aI214834854
aI214576423
aI214684843
aI214826799
aI214819762
aI214585395
aI214678453
aI214684730
aI214554431
aI214553544
aI214712137
aI214826955
aI214836300
aI214709970
aI214697432
aI214536412
aI214829282
aI214711078
aI214557095
aI214826606
aI214565623
aI214819775
aI214664831
asI8044
(lp436
I214839864
asI8046
(lp437
I214826625
aI214826627
aI214826955
aI214664919
aI214840412
aI214840415
asI8052
(lp438
I214594663
asI8092
(lp439
I214711517
asI8102
(lp440
I214684841
aI214716714
aI214826925
aI214558192
aI214834865
aI214827000
aI214828987
aI214716746
aI214827005
aI214716671
asI8129
(lp441
I214516768
asI8133
(lp442
I214684513
asI8134
(lp443
I214826803
aI214821277
aI214821285
asI8142
(lp444
I214833802
aI214587650
asI8148
(lp445
I214512425
aI214601670
aI214537967
asI8162
(lp446
I214821277
asI8204
(lp447
I214714757
asI8246
(lp448
I214821305
aI214821307
aI214612710
aI214821302
aI214586711
asI8258
(lp449
I214683690
aI214701495
aI214821292
aI214683598
aI214683667
aI214701684
aI214826702
aI214683735
aI214683673
aI214821290
asI8266
(lp450
I214587650
aI214594556
aI214821277
aI214538030
asI8337
(lp451
I214688672
aI214835235
aI214688612
aI214688645
aI214688711
aI214820458
aI214820812
aI214541525
aI214557817
aI214635493
asI8362
(lp452
I214612785
asI8422
(lp453
I214697334
aI214718246
aI214711082
aI214826606
aI214676945
aI214571188
aI214718390
aI214711290
aI214678044
aI214718398
asI8427
(lp454
I214533026
aI214533022
asI8437
(lp455
I214835120
asI8537
(lp456
I214826897
aI214709634
asI8549
(lp457
I214586432
aI214585633
aI214555492
aI214674401
aI214819719
aI214839311
aI214543922
aI214554967
asI8573
(lp458
I214717003
aI214716926
asI8594
(lp459
I214826955
aI214826715
asI8623
(lp460
I214512429
asI8624
(lp461
I214716930
asI8628
(lp462
I214513288
aI214513170
aI214513284
asI8647
(lp463
I214826801
aI214821277
asI8693
(lp464
I214573001
asI8741
(lp465
I214716984
aI214832653
aI214716982
aI214716941
asI8744
(lp466
I214565623
asI8749
(lp467
I214695425
aI214674620
aI214674675
aI214738453
aI214536440
aI214706169
aI214674684
aI214674677
asI8751
(lp468
I214684093
asI8753
(lp469
I214748338
asI8793
(lp470
I214838503
aI214688636
aI214714663
aI214826705
aI214717877
aI214636794
aI214716924
aI214688638
asI8826
(lp471
I214839313
aI214840001
aI214839995
aI214839997
aI214839999
asI8861
(lp472
I214710129
aI214821011
aI214832557
asI8884
(lp473
I214826955
aI214826627
asI8891
(lp474
I214820383
asI8909
(lp475
I214684093
aI214832670
aI214600989
asI8921
(lp476
I214839656
asI8926
(lp477
I214829737
aI214826801
aI214826700
aI214837487
asI8942
(lp478
I214554982
aI214821015
aI214826615
aI214826612
aI214717877
aI214718167
aI214826617
aI214564380
aI214826621
asI8964
(lp479
I214716928
asI8974
(lp480
I214690813
asI8988
(lp481
I214820415
aI214684513
aI214685795
aI214546121
asI9004
(lp482
I214829737
aI214837708
aI214820237
aI214706450
aI214709685
aI214706441
aI214821279
asI9012
(lp483
I214709807
asI9016
(lp484
I214531618
aI214537670
aI214586983
aI214710285
aI214710287
aI214644662
aI214840762
aI214516123
aI214516127
asI9052
(lp485
I214508287
asI9073
(lp486
I214826803
aI214821285
aI214613638
asI9074
(lp487
I214710075
asI9097
(lp488
I214821277
aI214821285
asI9117
(lp489
I214546085
aI214546089
aI214684010
aI214541355
aI214570895
aI214570963
aI214527028
aI214748285
asI9119
(lp490
I214612704
aI214533026
aI214612751
aI214656382
aI214586711
asI9172
(lp491
I214821290
aI214821292
aI214821285
asI9179
(lp492
I214716939
aI214716973
asI9201
(lp493
I214716997
aI214716982
aI214716965
asI9259
(lp494
I214716965
aI214716997
aI214716943
aI214716982
aI214717007
aI214716671
asI9272
(lp495
I214697272
aI214583947
asI9277
(lp496
I214717005
aI214716926
aI214717007
asI9292
(lp497
I214585395
aI214840597
aI214820413
asI9293
(lp498
I214581489
asI9307
(lp499
I214601218
aI214826627
aI214844036
aI214844042
aI214844300
aI214708370
aI214691349
aI214601117
aI214819490
aI214826801
aI214554675
aI214601012
aI214691383
aI214717880
aI214602300
aI214843447
aI214843682
aI214826702
aI214844377
aI214705757
aI214838750
aI214842463
aI214840892
aI214691437
aI214843374
aI214691441
aI214826612
aI214844278
aI214826619
asI9359
(lp500
I214716928
aI214716932
aI214717003
aI214717007
aI214832657
aI214716984
aI214716988
asI9401
(lp501
I214821386
aI214820447
asI9404
(lp502
I214743341
asI9406
(lp503
I214540922
aI214827028
aI214717093
asI9414
(lp504
I214716997
aI214716937
aI214717003
aI214716973
aI214716943
aI214716977
aI214716947
asI9424
(lp505
I214820248
aI214839313
asI9479
(lp506
I214594678
asI9503
(lp507
I214708044
aI214644317
asI9527
(lp508
I214716928
aI214753515
aI214714599
aI214717003
aI214678766
aI214821309
aI214716926
asI9541
(lp509
I214839795
asI9554
(lp510
I214557095
aI214677512
aI214553865
aI214582378
aI214582380
aI214582385
aI214705147
asI9568
(lp511
I214832552
aI214684841
aI214837485
aI214698446
aI214838831
aI214559726
aI214844246
aI214716120
aI214837487
aI214662782
aI214648245
asI9591
(lp512
I214554155
aI214774687
asI9601
(lp513
I214644650
asI9649
(lp514
I214839808
aI214844132
aI214835900
aI214709580
aI214602227
aI214709589
aI214838460
asI9657
(lp515
I214684513
asI9669
(lp516
I214545879
asI9702
(lp517
I214826912
aI214837442
aI214828987
aI214708370
aI214709735
aI214820201
aI214837490
aI214698446
aI214837485
aI214684845
aI214559730
aI214709634
aI214826801
aI214826889
aI214837487
aI214760891
asI9731
(lp518
I214826769
aI214820261
aI214820233
asI9756
(lp519
I214839643
aI214839654
aI214838855
asI9766
(lp520
I214687736
asI9787
(lp521
I214716973
asI9797
(lp522
I214748312
aI214819781
asI9812
(lp523
I214537967
asI9827
(lp524
I214774685
asI9862
(lp525
I214835585
aI214833802
aI214835775
asI9881
(lp526
I214839311
asI9884
(lp527
I214534464
aI214832428
aI214541060
asI9924
(lp528
I214716973
asI9927
(lp529
I214841060
aI214600989
asI9932
(lp530
I214716928
aI214546082
aI214800262
aI214683975
aI214748334
aI214838831
aI214826872
aI214717007
aI214826927
aI214826876
aI214690110
asI9953
(lp531
I214826801
aI214821290
aI214826955
aI214821285
asI9957
(lp532
I214826835
asI9961
(lp533
I214821024
aI214821017
aI214821020
aI214819552
asI9966
(lp534
I214821292
as.