(lp0
(lp1
I767
aI966
aa(lp2
I281
aI623
aa(lp3
I134
aI1116
aa(lp4
I994
aI1017
aa(lp5
I994
aI1017
aI986
aI977
aa(lp6
I994
aI1017
aI986
aI977
aI984
aa(lp7
I1159
aI71
aI1160
aa(lp8
I51
aI133
aa(lp9
I1058
aI223
aI631
aI912
aa(lp10
I1058
aI223
aI631
aa(lp11
I691
aI902
aa(lp12
I771
aI286
aI1004
aI925
aI1001
aI1003
aa(lp13
I771
aI286
aI1004
aa(lp14
I771
aI286
aI1004
aI925
aI1001
aI1003
aI450
aI1012
aa(lp15
I1017
aI986
aa(lp16
I825
aI821
aa(lp17
I825
aI821
aI1096
aI948
aa(lp18
I825
aI821
aI1096
aI948
aI949
aa(lp19
I43
aI581
aa(lp20
I490
aI607
aI952
aI487
aI488
aI609
aI988
aI491
aI489
aI951
aa(lp21
I490
aI607
aI952
aa(lp22
I490
aI607
aI952
aI487
aI488
aI609
aI988
aa(lp23
I1029
aI832
aa(lp24
I230
aI626
aa(lp25
I298
aI304
aI948
aa(lp26
I10
aI11
aI918
aI8
aI263
aa(lp27
I437
aI586
aa(lp28
I896
aI1145
aa(lp29
I896
aI1145
aI286
aI877
aa(lp30
I896
aI1145
aI286
aI877
aI771
aI922
aa(lp31
I896
aI1145
aI286
aI877
aI771
aI922
aI431
aI580
aI188
aI180
aI332
aI870
aI804
aI955
aI1001
aI201
aI168
aI787
aI1012
aI819
aa(lp32
I896
aI1145
aI286
aI877
aI771
aI922
aI431
aI580
aI188
aI180
aI332
aI870
aI804
aI955
aI1001
aa(lp33
I896
aI1145
aI286
aI877
aI771
aI922
aI431
aa(lp34
I896
aI1145
aI286
aI877
aI771
aI922
aI431
aI580
aI188
aI180
aI332
aI870
aI804
aI955
aI1001
aI201
aI168
aI787
aI1012
aa(lp35
I797
aI641
aa(lp36
I797
aI641
aI1145
aa(lp37
I797
aI641
aI1145
aI633
aa(lp38
I633
aI219
aa(lp39
I633
aI219
aI880
aa(lp40
I633
aI219
aI880
aI990
aa(lp41
I633
aI219
aI880
aI990
aI895
aa(lp42
I633
aI219
aI880
aI990
aI895
aI69
aa(lp43
I280
aI279
aa(lp44
I1133
aI517
aa(lp45
I1133
aI517
aI81
aa(lp46
I435
aI968
aI1043
aa(lp47
I218
aI1000
aI1017
aa(lp48
I218
aI1000
aI1017
aI990
aa(lp49
I539
aI1067
aI533
aI537
aI540
aI931
aa(lp50
I539
aI1067
aI533
aI537
aI540
aI931
aI932
aa(lp51
I539
aI1067
aI533
aI537
aI540
aI931
aI932
aI116
aI198
aI377
aa(lp52
I539
aI1067
aI533
aI537
aI540
aa(lp53
I526
aI287
aa(lp54
I629
aI942
aa(lp55
I990
aI1008
aa(lp56
I755
aI1045
aI753
aa(lp57
I1124
aI858
aa(lp58
I1124
aI1139
aa(lp59
I1124
aI1139
aI1140
aa(lp60
I1124
aI1139
aI1140
aI160
aI1141
aa(lp61
I636
aI425
aI206
aI869
aI981
aa(lp62
I636
aI425
aI206
aI869
aI981
aI191
aI426
aI983
aa(lp63
I636
aI425
aI206
aI869
aa(lp64
I997
aI952
aI516
aI989
aa(lp65
I997
aI952
aa(lp66
I522
aI193
aI439
aI890
aI944
aa(lp67
I593
aI801
aI669
aI977
aI469
aa(lp68
I593
aI801
aI669
aI977
aI469
aI223
aI805
aI671
aI475
aa(lp69
I593
aI801
aI669
aI977
aa(lp70
I593
aI801
aI669
aI977
aI469
aI223
aI805
aI671
aI475
aI807
aa(lp71
I852
aI843
aa(lp72
I60
aI59
aa(lp73
I946
aI1022
aa(lp74
I946
aI1022
aI153
aa(lp75
I986
aI365
aI445
aI366
aI367
aa(lp76
I986
aI365
aI445
aI366
aI367
aI1017
aI483
aI368
aI1000
aa(lp77
I515
aI1106
aI1107
aI124
aI123
aI816
aa(lp78
I532
aI831
aa(lp79
I734
aI764
aa(lp80
I734
aI764
aI733
aa(lp81
I95
aI85
aI94
aI252
aI358
aI254
aI14
aI1094
aa(lp82
I95
aI85
aI94
aI252
aI358
aI254
aI14
aI1094
aI1093
aa(lp83
I873
aI793
aI214
aI563
aa(lp84
I989
aI995
aa(lp85
I989
aI995
aI950
aa(lp86
I951
aI948
aa(lp87
I1160
aI995
aa(lp88
I382
aI725
aI42
aI383
aI883
aI1007
aI24
aI25
aI1124
aa(lp89
I382
aI725
aI42
aI383
aI883
aa(lp90
I1073
aI1055
aI300
aI1056
aa(lp91
I766
aI739
aa(lp92
I1021
aI1066
aI720
aI825
aa(lp93
I1021
aI1066
aI720
aI825
aI996
aI721
aa(lp94
I1021
aI1066
aI720
aa(lp95
I1021
aI1066
aa(lp96
I1009
aI649
aa(lp97
I276
aI265
aI295
aI394
aI1006
aI951
aI1017
aa(lp98
I276
aI265
aI295
aI394
aI1006
aa(lp99
I276
aI265
aa(lp100
I276
aI265
aI295
aI394
aI1006
aI951
aI1017
aI1131
aI174
aI294
aI1000
aI965
aa(lp101
I276
aI265
aI295
aI394
aI1006
aI951
aI1017
aI1131
aI174
aI294
aI1000
aI965
aI948
aa(lp102
I930
aI434
aI829
aI833
aI641
aI66
aa(lp103
I930
aI434
aI829
aa(lp104
I930
aI434
aI829
aI833
aI641
aI66
aI67
aI1089
aI937
aa(lp105
I986
aI950
aI951
aa(lp106
I986
aI950
aI951
aI945
aI1149
aI948
aa(lp107
I986
aI950
aa(lp108
I914
aI597
aa(lp109
I914
aI597
aI913
aa(lp110
I914
aI597
aI913
aI919
aa(lp111
I953
aI646
aI274
aa(lp112
I1058
aI711
aa(lp113
I1058
aI711
aI427
aI1025
aa(lp114
I941
aI938
aI939
aa(lp115
I1022
aI1027
aa(lp116
I197
aI853
aa(lp117
I197
aI853
aI848
aa(lp118
I1017
aI990
aa(lp119
I941
aI220
aI836
aI795
aa(lp120
I941
aI220
aI836
aI795
aI797
aI217
aI940
aa(lp121
I782
aI784
aI530
aI1054
aI657
aa(lp122
I21
aI19
aa(lp123
I21
aI19
aI20
aa(lp124
I706
aI694
aa(lp125
I763
aI733
aa(lp126
I886
aI943
aI1056
aI1043
aa(lp127
I886
aI943
aI1056
aI1043
aI1044
aa(lp128
I951
aI952
aa(lp129
I951
aI952
aI948
aa(lp130
I994
aI948
aa(lp131
I1076
aI512
aI854
aI718
aI700
aI870
aa(lp132
I353
aI137
aI60
aI138
aI139
aI963
aI140
aI361
aa(lp133
I353
aI137
aI60
aI138
aI139
aI963
aI140
aa(lp134
I353
aI137
aI60
aI138
aI139
aI963
aI140
aI361
aI957
aI959
aa(lp135
I353
aI137
aI60
aI138
aI139
aa(lp136
I1033
aI378
aI835
aI610
aI135
aI1053
aa(lp137
I1033
aI378
aI835
aI610
aI135
aI1053
aI735
aI850
aI125
aa(lp138
I1088
aI557
aa(lp139
I229
aI946
aa(lp140
I229
aI946
aI799
aI1161
aI972
aa(lp141
I941
aI777
aa(lp142
I941
aI777
aI217
aa(lp143
I853
aI843
aa(lp144
I374
aI1024
aI954
aI723
aa(lp145
I374
aI1024
aI954
aI723
aI979
aa(lp146
I374
aI1024
aI954
aI723
aI979
aI790
aI980
aa(lp147
I374
aI1024
aI954
aI723
aI979
aI790
aI980
aI946
aa(lp148
I374
aI1024
aI954
aI723
aI979
aI790
aI980
aI946
aI685
aI927
aa(lp149
I1061
aI509
aI60
aa(lp150
I1061
aI509
aI60
aI139
aI239
aa(lp151
I941
aI1043
aa(lp152
I941
aI1043
aI940
aa(lp153
I941
aI1043
aI940
aI1044
aa(lp154
I757
aI1045
aa(lp155
I757
aI1045
aI756
aI740
aa(lp156
I1136
aI1187
aI1080
aI645
aI337
aa(lp157
I1136
aI1187
aI1080
aI645
aa(lp158
I1136
aI1187
aI1080
aI645
aI337
aI647
aa(lp159
I994
aI995
aa(lp160
I994
aI995
aI948
aI950
aa(lp161
I994
aI995
aI948
aa(lp162
I585
aI457
aI458
aI814
aI82
aa(lp163
I922
aI889
aI231
aI847
aa(lp164
I922
aI889
aa(lp165
I922
aI889
aI231
aa(lp166
I922
aI889
aI231
aI847
aI871
aa(lp167
I734
aI985
aa(lp168
I734
aI985
aI726
aI555
aa(lp169
I734
aI985
aI726
aI555
aI919
aI763
aI764
aa(lp170
I734
aI985
aI726
aI555
aI919
aI763
aI764
aI551
aa(lp171
I734
aI985
aI726
aI555
aI919
aI763
aI764
aI551
aI765
aI870
aI928
aa(lp172
I734
aI985
aI726
aI555
aI919
aI763
aI764
aI551
aI765
aI870
aI928
aI990
aa(lp173
I989
aI951
aa(lp174
I989
aI951
aI276
aa(lp175
I1167
aI1171
aa(lp176
I1116
aI535
aI705
aI989
aa(lp177
I1116
aI535
aI705
aI989
aI790
aa(lp178
I325
aI620
aI1034
aa(lp179
I470
aI29
aI735
aI736
aI794
aI737
aI122
aI708
aI384
aI177
aI648
aI680
aI1119
aa(lp180
I470
aI29
aI735
aa(lp181
I951
aI948
aa(lp182
I734
aI757
aI1046
aI1047
aa(lp183
I793
aI794
aI923
aI870
aa(lp184
I793
aI794
aI923
aa(lp185
I1035
aI399
aa(lp186
I482
aI689
aa(lp187
I1009
aI948
aa(lp188
I997
aI1017
aI987
aI977
aI989
aa(lp189
I997
aI1017
aa(lp190
I997
aI1017
aI987
aa(lp191
I986
aI527
aI44
aI689
aI690
aI1023
aI256
aa(lp192
I986
aI527
aI44
aI689
aI690
aI1023
aI256
aI977
aI822
aa(lp193
I1182
aI1176
aI1165
aI1177
aI1172
aa(lp194
I1182
aI1176
aI1165
aa(lp195
I1182
aI1176
aI1165
aI1177
aI1172
aI1157
aI1173
aI1183
aa(lp196
I379
aI52
aI215
aa(lp197
I379
aI52
aI215
aI1124
aa(lp198
I379
aI52
aI215
aI1124
aI1139
aa(lp199
I379
aI52
aI215
aI1124
aI1139
aI1141
aa(lp200
I497
aI1049
aI321
aa(lp201
I497
aI1049
aa(lp202
I1036
aI994
aa(lp203
I1036
aI994
aI987
aa(lp204
I1124
aI763
aI733
aa(lp205
I79
aI1055
aa(lp206
I44
aI1000
aI822
aa(lp207
I44
aI1000
aI822
aI690
aI112
aa(lp208
I109
aI297
aI110
aa(lp209
I842
aI843
aa(lp210
I842
aI843
aI844
aa(lp211
I986
aI1010
aa(lp212
I986
aI524
aI525
aa(lp213
I186
aI937
aI980
aa(lp214
I186
aI937
aI980
aI979
aa(lp215
I186
aI937
aa(lp216
I186
aI937
aI980
aI979
aI790
aI796
aI981
aa(lp217
I186
aI937
aI980
aI979
aI790
aI796
aI981
aI212
aI983
aa(lp218
I1078
aI296
aI1056
aI1077
aI1052
aa(lp219
I119
aI328
aI590
aI642
aI589
aa(lp220
I119
aI328
aI590
aI642
aI589
aI227
aI278
aI261
aI22
aa(lp221
I1113
aI747
aI748
aI739
aI754
aI738
aI789
aa(lp222
I30
aI531
aa(lp223
I927
aI502
aa(lp224
I927
aI502
aI520
aa(lp225
I927
aI502
aI520
aI132
aa(lp226
I874
aI1002
aI506
aa(lp227
I45
aI468
aI349
aI690
aI236
aI689
aa(lp228
I1036
aI1104
aI915
aI632
aa(lp229
I1036
aI1104
aI915
aa(lp230
I1036
aI1104
aI915
aI632
aI653
aI631
aI949
aa(lp231
I1125
aI1114
aI1137
aI351
aI1080
aa(lp232
I1013
aI771
aI511
aI391
aI975
aa(lp233
I1013
aI771
aI511
aI391
aI975
aI1012
aa(lp234
I1013
aI771
aa(lp235
I1013
aI771
aI511
aI391
aa(lp236
I50
aI93
aI291
aI663
aa(lp237
I50
aI93
aI291
aI663
aI664
aI404
aa(lp238
I668
aI807
aI669
aa(lp239
I668
aI807
aI669
aI875
aI670
aI675
aI905
aI673
aI904
aa(lp240
I668
aI807
aI669
aI875
aI670
aI675
aI905
aa(lp241
I668
aI807
aI669
aI875
aI670
aa(lp242
I978
aI997
aa(lp243
I978
aI997
aI164
aI950
aa(lp244
I978
aI997
aI164
aI950
aI948
aa(lp245
I326
aI327
aa(lp246
I735
aI1046
aI1045
aa(lp247
I734
aI890
aI739
aI879
aI741
aI744
aI1028
aI447
aI570
aI589
aI751
aI896
aI590
aa(lp248
I734
aI890
aI739
aI879
aa(lp249
I734
aI890
aI739
aI879
aI741
aI744
aI1028
aI447
aI570
aI589
aI751
aI896
aa(lp250
I734
aI890
aI739
aI879
aI741
aI744
aI1028
aI447
aI570
aI589
aI751
aI896
aI590
aI925
aI760
aI763
aI764
aI765
aI999
aa(lp251
I734
aI890
aI739
aI879
aI741
aI744
aI1028
aI447
aI570
aI589
aI751
aI896
aI590
aI925
aa(lp252
I734
aI890
aI739
aI879
aI741
aI744
aI1028
aI447
aI570
aI589
aI751
aI896
aI590
aI925
aI760
aI763
aI764
aI765
aI999
aI1111
aI929
aa(lp253
I1021
aI707
aI948
aI955
aI982
aI983
aa(lp254
I734
aI736
aI763
aI765
aI1047
aI757
aa(lp255
I773
aI918
aa(lp256
I997
aI556
aI527
aI1116
aI951
aI683
aI978
aa(lp257
I997
aI556
aI527
aI1116
aI951
aa(lp258
I997
aI556
aI527
aI1116
aI951
aI683
aI978
aI994
aI83
aI448
aa(lp259
I995
aI950
aa(lp260
I995
aI950
aI363
aa(lp261
I541
aI485
aa(lp262
I976
aI961
aI736
aa(lp263
I1076
aI18
aI64
aI46
aI1063
aa(lp264
I1032
aI659
aa(lp265
I948
aI950
aa(lp266
I789
aI756
aa(lp267
I248
aI756
aI345
aI390
aI510
aI911
aI757
aa(lp268
I248
aI756
aI345
aI390
aI510
aa(lp269
I129
aI130
aa(lp270
I129
aI130
aI494
aI115
aI221
aI222
aa(lp271
I129
aI130
aI494
aI115
aI221
aI222
aI41
aI837
aa(lp272
I129
aI130
aI494
aI115
aI221
aa(lp273
I987
aI952
aa(lp274
I987
aI952
aI948
aa(lp275
I279
aI185
aa(lp276
I986
aI865
aI1017
aI655
aI1011
aa(lp277
I986
aI865
aI1017
aa(lp278
I986
aI865
aI1017
aI655
aa(lp279
I986
aI865
aI1017
aI655
aI1011
aI894
aa(lp280
I388
aI473
aa(lp281
I388
aI473
aI387
aI476
aa(lp282
I279
aI185
aa(lp283
I164
aI276
aa(lp284
I946
aI1022
aa(lp285
I946
aI1022
aI1027
aa(lp286
I397
aI967
aa(lp287
I1005
aI756
aa(lp288
I1005
aI756
aI127
aa(lp289
I995
aI950
aa(lp290
I941
aI1044
aa(lp291
I847
aI922
aI811
aa(lp292
I896
aI922
aI923
aI867
aI870
aa(lp293
I896
aI922
aI923
aa(lp294
I896
aI922
aI923
aI867
aa(lp295
I739
aI752
aa(lp296
I792
aI210
aI710
aI1036
aI205
aI1043
aI880
aa(lp297
I792
aI210
aI710
aa(lp298
I792
aI210
aa(lp299
I762
aI758
aa(lp300
I761
aI756
aa(lp301
I1080
aI1115
aa(lp302
I142
aI716
aI621
aI763
aI1087
aI1168
aI1046
aI371
aI827
aI619
aI381
aI578
aa(lp303
I142
aI716
aI621
aI763
aI1087
aI1168
aI1046
aI371
aI827
aI619
aI381
aI578
aI904
aI429
aI715
aa(lp304
I142
aI716
aI621
aI763
aI1087
aI1168
aI1046
aa(lp305
I347
aI502
aa(lp306
I226
aI1043
aI974
aa(lp307
I309
aI308
aa(lp308
I864
aI890
aI738
aI739
aI698
aI674
aI310
aI651
aI588
aI815
aI635
aI346
aI257
aI897
aI136
aI688
aI176
aI778
aI879
aI454
aI998
aI999
aa(lp309
I864
aI890
aI738
aI739
aI698
aI674
aI310
aI651
aI588
aI815
aI635
aI346
aI257
aI897
aI136
aI688
aI176
aI778
aI879
aI454
aI998
aa(lp310
I864
aI890
aI738
aI739
aI698
aI674
aI310
aI651
aI588
aI815
aI635
aI346
aI257
aI897
aI136
aI688
aI176
aa(lp311
I1017
aI1007
aa(lp312
I1017
aI1007
aI998
aa(lp313
I1017
aI1007
aI998
aI977
aa(lp314
I151
aI982
aa(lp315
I749
aI761
aa(lp316
I891
aI934
aI1017
aI616
aI988
aa(lp317
I757
aI1045
aa(lp318
I592
aI265
aa(lp319
I764
aI733
aI765
aa(lp320
I276
aI1147
aI926
aa(lp321
I331
aI986
aa(lp322
I331
aI986
aI1185
aI1186
aI1191
aI641
aI552
aI329
aI881
aI994
aI182
aI323
aI553
aI791
aI338
aI1169
aI1180
aI988
aI1193
aI622
aI1117
aI1166
aI1156
aI558
aI1168
aI559
aI979
aI1189
aI982
aa(lp323
I331
aI986
aI1185
aI1186
aI1191
aI641
aI552
aI329
aI881
aI994
aI182
aI323
aa(lp324
I331
aI986
aI1185
aI1186
aI1191
aI641
aI552
aI329
aI881
aI994
aI182
aI323
aI553
aI791
aI338
aI1169
aI1180
aI988
aI1193
aI622
aI1117
aa(lp325
I331
aI986
aI1185
aI1186
aI1191
aI641
aI552
aI329
aI881
aI994
aI182
aI323
aI553
aa(lp326
I598
aI599
aa(lp327
I411
aI303
aI103
aI104
aa(lp328
I411
aI303
aa(lp329
I556
aI1151
aa(lp330
I906
aI1190
aa(lp331
I1006
aI987
aa(lp332
I1006
aI987
aI790
aa(lp333
I1006
aI987
aI790
aI980
aI981
aa(lp334
I1006
aI987
aI790
aI980
aI981
aI982
aa(lp335
I1006
aI987
aI790
aI980
aI981
aI982
aI1004
aI983
aa(lp336
I1006
aI987
aI790
aI980
aI981
aI982
aI1004
aI983
aI686
aa(lp337
I1006
aI987
aI790
aI980
aI981
aI982
aI1004
aI983
aI686
aI984
aa(lp338
I427
aI370
aI373
aI56
aI1097
aI57
aI245
aI1098
aI369
aa(lp339
I427
aI370
aI373
aI56
aa(lp340
I427
aI370
aI373
aI56
aI1097
aI57
aI245
aI1098
aI369
aI1099
aI372
aa(lp341
I990
aI977
aa(lp342
I771
aI199
aI1001
aI196
aI946
aa(lp343
I771
aI199
aI1001
aI196
aI946
aI1004
aI547
aa(lp344
I957
aI287
aa(lp345
I847
aI973
aI1037
aI1145
aa(lp346
I970
aI929
aa(lp347
I113
aI1026
aa(lp348
I1063
aI12
aI321
aI690
aa(lp349
I1017
aI986
aa(lp350
I761
aI738
aI763
aI752
aa(lp351
I1124
aI1142
aI980
aI1140
aa(lp352
I1124
aI1142
aI980
aI1140
aI1141
aa(lp353
I917
aI1124
aa(lp354
I602
aI413
aI414
aI101
aa(lp355
I359
aI360
aa(lp356
I118
aI587
aa(lp357
I256
aI689
aa(lp358
I538
aI544
aa(lp359
I1153
aI557
aI1154
aI1155
aa(lp360
I1153
aI557
aI1154
aI1155
aI2
aI319
aa(lp361
I1153
aI557
aI1154
aa(lp362
I1083
aI1084
aI1085
aa(lp363
I799
aI972
aa(lp364
I651
aI907
aI828
aa(lp365
I651
aI907
aa(lp366
I651
aI907
aI828
aI908
aa(lp367
I997
aI998
aa(lp368
I734
aI854
aI704
aI763
aa(lp369
I1124
aI649
aI1139
aa(lp370
I193
aI471
aI170
aI259
aI260
aI261
aa(lp371
I193
aI471
aI170
aI259
aa(lp372
I193
aI471
aI170
aI259
aI260
aa(lp373
I186
aI391
aI1001
aI980
aI981
aa(lp374
I186
aI391
aI1001
aI980
aI981
aI982
aa(lp375
I186
aI391
aI1001
aI980
aI981
aI982
aI983
aa(lp376
I186
aI391
aI1001
aI980
aa(lp377
I906
aI985
aI462
aI986
aI461
aI1190
aI1017
aI463
aI448
aI641
aI83
aI553
aI928
aa(lp378
I906
aI985
aI462
aI986
aI461
aI1190
aI1017
aI463
aI448
aI641
aI83
aI553
aI928
aI990
aa(lp379
I906
aI985
aI462
aI986
aa(lp380
I906
aI985
aa(lp381
I1042
aI511
aa(lp382
I1042
aI511
aI1101
aa(lp383
I1042
aI511
aI1101
aI596
aI1118
aI203
aa(lp384
I1042
aI511
aI1101
aI596
aI1118
aa(lp385
I172
aI859
aa(lp386
I89
aI564
aI919
aI3
aa(lp387
I89
aI564
aI919
aI3
aI914
aa(lp388
I89
aI564
aI919
aa(lp389
I89
aI564
aI919
aI3
aI914
aI318
aI71
aa(lp390
I159
aI167
aa(lp391
I159
aI167
aI994
aI1160
aI922
aI995
aI936
aa(lp392
I960
aI956
aa(lp393
I667
aI505
aI823
aI630
aI888
aa(lp394
I667
aI505
aI823
aI630
aI888
aI1008
aa(lp395
I995
aI950
aa(lp396
I969
aI967
aa(lp397
I969
aI967
aI945
aa(lp398
I916
aI826
aI915
aa(lp399
I914
aI71
aa(lp400
I402
aI629
aI484
aI1064
aI633
aI643
aI608
aI609
aI666
aI1069
aI478
aI948
aa(lp401
I234
aI800
aa(lp402
I353
aI60
aI357
aI438
aI287
aa(lp403
I712
aI611
aI858
aa(lp404
I1092
aI15
aI809
aI13
aa(lp405
I1092
aI15
aI809
aa(lp406
I1092
aI15
aI809
aI13
aI189
aI813
aa(lp407
I941
aI886
aI520
aI449
aI1043
aa(lp408
I941
aI886
aI520
aI449
aI1043
aI731
aa(lp409
I564
aI563
aI292
aa(lp410
I74
aI986
aI76
aI139
aI287
aI957
aa(lp411
I74
aI986
aI76
aI139
aI287
aI957
aI72
aa(lp412
I74
aI986
aI76
aI139
aI287
aI957
aI72
aI73
aa(lp413
I519
aI158
aI165
aI362
aI516
aI953
aa(lp414
I519
aI158
aI165
aI362
aI516
aI953
aI6
aa(lp415
I519
aI158
aI165
aI362
aI516
aI953
aI6
aI1192
aa(lp416
I519
aI158
aI165
aI362
aI516
aI953
aI6
aI1192
aI1184
aa(lp417
I519
aI158
aI165
aI362
aI516
aI953
aI6
aI1192
aI1184
aI386
aa(lp418
I519
aI158
aI165
aI362
aI516
aI953
aI6
aI1192
aI1184
aI386
aI61
aI518
aI157
aa(lp419
I870
aI793
aI882
aI828
aI922
aI891
aI449
aI830
aI923
aI687
aI993
aI924
aa(lp420
I870
aI793
aI882
aI828
aI922
aa(lp421
I870
aI793
aI882
aI828
aI922
aI891
aI449
aa(lp422
I870
aI793
aI882
aI828
aa(lp423
I881
aI818
aa(lp424
I734
aI735
aI763
aa(lp425
I511
aI728
aI1014
aI200
aI1058
aI1018
aI1031
aI729
aa(lp426
I511
aI728
aI1014
aa(lp427
I511
aI728
aI1014
aI200
aI1058
aI1018
aI1031
aI729
aI1019
aa(lp428
I511
aI728
aI1014
aI200
aI1058
aa(lp429
I511
aI728
aI1014
aI200
aI1058
aI1018
aa(lp430
I511
aI728
aI1014
aI200
aI1058
aI1018
aI1031
aa(lp431
I511
aI728
aa(lp432
I511
aI728
aI1014
aI200
aI1058
aI1018
aI1031
aI729
aI1019
aI727
aa(lp433
I1013
aI1100
aa(lp434
I1013
aI1100
aI1031
aI641
aI654
aa(lp435
I1013
aI1100
aI1031
aI641
aI654
aI909
aa(lp436
I1013
aI1100
aI1031
aI641
aI654
aI909
aI1103
aI596
aI1101
aa(lp437
I1013
aI1100
aI1031
aI641
aI654
aI909
aI1103
aI596
aI1101
aI513
aa(lp438
I1013
aI1100
aI1031
aI641
aI654
aI909
aI1103
aI596
aI1101
aI513
aI204
aa(lp439
I1013
aI1100
aI1031
aI641
aI654
aI909
aI1103
aI596
aI1101
aI513
aI204
aI649
aI994
aI1006
aa(lp440
I1013
aI1100
aI1031
aa(lp441
I258
aI1149
aa(lp442
I258
aI1149
aI290
aa(lp443
I258
aI1149
aI290
aI312
aa(lp444
I773
aI184
aa(lp445
I773
aI184
aI532
aa(lp446
I978
aI996
aa(lp447
I978
aI996
aI1000
aI977
aa(lp448
I992
aI919
aI914
aa(lp449
I992
aI919
aa(lp450
I995
aI950
aa(lp451
I780
aI781
aa(lp452
I1128
aI1129
aa(lp453
I1035
aI1027
aI569
aI235
aI375
aI604
aa(lp454
I376
aI1124
aa(lp455
I1071
aI240
aI48
aa(lp456
I845
aI900
aa(lp457
I734
aI735
aa(lp458
I449
aI891
aI847
aI925
aa(lp459
I449
aI891
aI847
aI925
aI863
aa(lp460
I633
aI942
aa(lp461
I33
aI5
aa(lp462
I33
aI5
aI1017
aI977
aI730
aI250
aI1000
aI1146
aa(lp463
I33
aI5
aI1017
aI977
aI730
aI250
aa(lp464
I33
aI5
aI1017
aI977
aI730
aI250
aI1000
aa(lp465
I33
aI5
aI1017
aI977
aI730
aI250
aI1000
aI1146
aI34
aa(lp466
I33
aI5
aI1017
aI977
aI730
aI250
aI1000
aI1146
aI34
aI990
aa(lp467
I33
aI5
aI1017
aI977
aI730
aI250
aI1000
aI1146
aI34
aI990
aI1002
aa(lp468
I673
aI508
aI670
aa(lp469
I957
aI961
aI948
aa(lp470
I644
aI613
aa(lp471
I808
aI734
aI763
aI572
aI571
aI579
aI832
aa(lp472
I1073
aI1056
aa(lp473
I392
aI100
aI432
aI249
aI320
aa(lp474
I392
aI100
aI432
aI249
aa(lp475
I995
aI948
aa(lp476
I995
aI948
aI950
aa(lp477
I868
aI794
aI867
aI870
aa(lp478
I868
aI794
aI867
aI870
aI860
aI1012
aa(lp479
I233
aI526
aa(lp480
I233
aI526
aI898
aa(lp481
I1018
aI1014
aa(lp482
I237
aI639
aa(lp483
I951
aI948
aa(lp484
I637
aI401
aa(lp485
I1110
aI1163
aI863
aI1162
aI732
aa(lp486
I111
aI385
aI246
aI903
aI237
aa(lp487
I1159
aI321
aa(lp488
I758
aI764
aI740
aa(lp489
I734
aI128
aI865
aI493
aI846
aI1118
aI1003
aI765
aI1015
aI1004
aI541
aa(lp490
I98
aI87
aI86
aI88
aa(lp491
I654
aI915
aa(lp492
I994
aI951
aa(lp493
I994
aI951
aI1017
aI950
aa(lp494
I1058
aI503
aI948
aa(lp495
I763
aI213
aI1063
aI315
aI615
aI703
aI1112
aa(lp496
I651
aI923
aa(lp497
I651
aI923
aI828
aa(lp498
I734
aI763
aI764
aa(lp499
I951
aI952
aa(lp500
I951
aI952
aI950
aa(lp501
I931
aI1075
aI1074
aI660
aa(lp502
I931
aI1075
aa(lp503
I839
aI852
aa(lp504
I887
aI995
aI166
aI950
aa(lp505
I887
aI995
aI166
aI950
aI920
aa(lp506
I843
aI840
aa(lp507
I339
aI583
aa(lp508
I339
aI583
aI317
aI341
aa(lp509
I273
aI272
aI271
aa(lp510
I951
aI913
aI948
aa(lp511
I1124
aI1141
aa(lp512
I1013
aI514
aI727
aI1058
aI208
aI1018
aa(lp513
I1013
aI514
aI727
aI1058
aa(lp514
I1013
aI514
aI727
aI1058
aI208
aI1018
aI1031
aa(lp515
I1013
aI514
aa(lp516
I1013
aI514
aI727
aI1058
aI208
aI1018
aI1031
aI1019
aI1020
aa(lp517
I326
aI327
aa(lp518
I143
aI585
aI144
aI913
aI1178
aI1179
aI1010
aI282
aI283
aI948
aI284
aI1081
aI146
aI27
aI705
aI130
aI951
aI145
aI253
aI993
aI954
aI148
aa(lp519
I143
aI585
aI144
aI913
aI1178
aI1179
aI1010
aI282
aI283
aI948
aI284
aI1081
aI146
aI27
aI705
aI130
aI951
aI145
aI253
aI993
aI954
aa(lp520
I143
aI585
aI144
aI913
aI1178
aI1179
aI1010
aI282
aI283
aI948
aI284
aI1081
aI146
aI27
aI705
aI130
aI951
aI145
aI253
aa(lp521
I143
aI585
aI144
aI913
aI1178
aI1179
aI1010
aI282
aI283
aI948
aI284
aI1081
aI146
aI27
aI705
aI130
aI951
aI145
aI253
aI993
aI954
aI148
aI920
aI409
aI492
aI605
aI624
aI440
aI150
aI496
aI499
aa(lp522
I143
aI585
aI144
aI913
aI1178
aI1179
aI1010
aI282
aI283
aI948
aa(lp523
I1174
aI1034
aa(lp524
I1174
aI1034
aI988
aa(lp525
I629
aI942
aI633
aa(lp526
I1018
aI1013
aa(lp527
I1018
aI1013
aI1025
aa(lp528
I995
aI920
aa(lp529
I723
aI26
aI1007
aa(lp530
I723
aI26
aa(lp531
I588
aI1057
aI238
aI512
aI993
aI897
aI276
aI477
aI507
aI176
aI161
aI688
aI1017
aI1082
aI658
aa(lp532
I588
aI1057
aI238
aI512
aI993
aI897
aI276
aa(lp533
I588
aI1057
aI238
aI512
aI993
aI897
aI276
aI477
aI507
aI176
aI161
aI688
aI1017
aI1082
aI658
aI594
aI80
aI1033
aI668
aI193
aI977
aI216
aI899
aI446
aa(lp534
I886
aI1033
aa(lp535
I886
aI1033
aI887
aI971
aa(lp536
I886
aI1033
aI887
aI971
aI937
aa(lp537
I886
aI1033
aI887
aI971
aI937
aI938
aI884
aa(lp538
I886
aI1033
aI887
aI971
aI937
aI938
aI884
aI939
aa(lp539
I886
aI1033
aI887
aI971
aI937
aI938
aI884
aI939
aI940
aa(lp540
I251
aI812
aI866
aI918
aI1084
aa(lp541
I251
aI812
aI866
aI918
aa(lp542
I951
aI952
aa(lp543
I951
aI952
aI948
aa(lp544
I985
aI986
aI1017
aa(lp545
I985
aI986
aa(lp546
I985
aI986
aI1017
aI448
aI1143
aI1144
aa(lp547
I420
aI152
aa(lp548
I293
aI1043
aa(lp549
I364
aI1158
aa(lp550
I1014
aI963
aI1058
aa(lp551
I1014
aI963
aI1058
aI1025
aa(lp552
I1014
aI963
aI1058
aI1025
aI1018
aa(lp553
I1014
aI963
aI1058
aI1025
aI1018
aI957
aI958
aa(lp554
I1014
aI963
aI1058
aI1025
aI1018
aI957
aI958
aI1019
aa(lp555
I1014
aI963
aI1058
aI1025
aI1018
aI957
aI958
aI1019
aI1020
aa(lp556
I661
aI935
aa(lp557
I117
aI544
aI232
aI546
aa(lp558
I117
aI544
aI232
aa(lp559
I154
aI465
aa(lp560
I90
aI595
aI832
aa(lp561
I90
aI595
aI832
aI977
aa(lp562
I313
aI921
aa(lp563
I313
aI921
aI939
aa(lp564
I1056
aI298
aa(lp565
I527
aI880
aa(lp566
I527
aI880
aI892
aI893
aI894
aI872
aI895
aa(lp567
I326
aI327
aa(lp568
I1124
aI1139
aa(lp569
I1124
aI1139
aI1140
aa(lp570
I1124
aI1139
aI1140
aI1141
aa(lp571
I464
aI412
aI408
aI406
aI407
aI783
aa(lp572
I870
aI769
aa(lp573
I996
aI1029
aa(lp574
I996
aI1029
aI788
aa(lp575
I354
aI1059
aI752
aa(lp576
I354
aI1059
aI752
aI357
aa.