(dp0
I214639616
I389
sI214573059
I229
sI214705494
I619
sI214827009
I1021
sI214677512
I471
sI214532107
I53
sI214827020
I1022
sI214554637
I180
sI214827022
I1023
sI214708239
I639
sI214827024
I1024
sI214839313
I1124
sI214827026
I1025
sI214683667
I488
sI214827028
I1026
sI214612760
I358
sI214710294
I665
sI214827032
I1028
sI214683673
I489
sI214827035
I1029
sI214652957
I433
sI214826702
I988
sI214835235
I1067
sI214538276
I100
sI214554662
I181
sI214652970
I434
sI214674695
I463
sI214587437
I294
sI214532147
I54
sI214704180
I614
sI214585397
I277
sI214704182
I615
sI214843447
I1169
sI214710328
I666
sI214843449
I1170
sI214685754
I518
sI214833800
I1055
sI214677566
I472
sI214712237
I690
sI214820938
I934
sI214839371
I1125
sI214601805
I335
sI214843470
I1171
sI214708303
I640
sI214511696
I13
sI214839377
I1127
sI214601812
I336
sI214835285
I1068
sI214558807
I201
sI214536281
I78
sI214710287
I664
sI214677596
I473
sI214567005
I217
sI214643045
I399
sI214685792
I519
sI214534241
I62
sI214685795
I520
sI214839654
I1129
sI214651580
I429
sI214575210
I236
sI214835677
I1075
sI214573168
I230
sI214642805
I398
sI214688711
I540
sI214652265
I432
sI214517880
I37
sI214826906
I1011
sI214839999
I1141
sI214685820
I521
sI214716467
I723
sI214827030
I1027
sI214826876
I1004
sI214554765
I183
sI214708370
I641
sI214821011
I935
sI214821013
I936
sI214577302
I242
sI214706102
I625
sI214821017
I938
sI214837820
I1108
sI214821020
I939
sI214833309
I1053
sI214821022
I940
sI214821024
I941
sI214554785
I184
sI214821028
I942
sI214834886
I1059
sI214589606
I303
sI214821032
I944
sI214515883
I26
sI214821037
I945
sI214690845
I543
sI214579378
I250
sI214581427
I255
sI214571188
I223
sI214684702
I504
sI214683735
I491
sI214716977
I754
sI214516768
I33
sI214837442
I1100
sI214783350
I860
sI214587590
I295
sI214536392
I79
sI214829257
I1032
sI214838460
I1114
sI214716110
I718
sI214843550
I1175
sI214587609
I296
sI214536412
I80
sI214835578
I1072
sI214678076
I476
sI214644960
I405
sI214753505
I851
sI214829282
I1033
sI214716643
I725
sI214829285
I1034
sI214714599
I704
sI214753513
I853
sI214745323
I830
sI214712681
I696
sI214837485
I1101
sI214526190
I40
sI214783357
I862
sI214581489
I256
sI214677746
I474
sI214536435
I81
sI214717822
I785
sI214536440
I82
sI214636794
I380
sI214587643
I297
sI214821015
I937
sI214585597
I278
sI214716671
I727
sI214706432
I629
sI214587650
I298
sI214684715
I505
sI214706437
I630
sI214820197
I907
sI214548744
I134
sI214706441
I631
sI214718167
I796
sI214843661
I1178
sI214645010
I406
sI214820402
I925
sI214541525
I116
sI214743341
I816
sI214695195
I582
sI214706460
I633
sI214706462
I634
sI214714757
I709
sI214585633
I279
sI214843682
I1180
sI214826715
I990
sI214516005
I27
sI214657318
I439
sI214714663
I705
sI214835713
I1076
sI214716714
I728
sI214820231
I913
sI214820812
I932
sI214573357
I231
sI214581551
I257
sI214587697
I299
sI214645042
I407
sI214585395
I276
sI214715102
I715
sI214536502
I83
sI214820233
I914
sI214694964
I571
sI214563133
I208
sI214690110
I541
sI214516031
I28
sI214534464
I63
sI214516033
I29
sI214578230
I249
sI214683975
I493
sI214516040
I30
sI214743369
I819
sI214716746
I729
sI214844312
I1192
sI214820237
I915
sI214716752
I730
sI214577492
I243
sI214554967
I185
sI214844132
I1187
sI214839643
I1128
sI214714717
I706
sI214714721
I707
sI214688098
I532
sI214536547
I84
sI214538597
I101
sI214554982
I186
sI214839656
I1130
sI214645097
I408
sI214684010
I494
sI214714732
I708
sI214577518
I245
sI214712687
I697
sI214698465
I597
sI214684020
I495
sI214684025
I496
sI214718197
I798
sI214819562
I887
sI214820201
I909
sI214536577
I85
sI214575491
I237
sI214707883
I635
sI214686086
I523
sI214714760
I710
sI214587785
I300
sI214821272
I946
sI214826953
I1016
sI214717507
I778
sI214685422
I516
sI214713847
I703
sI214587800
I301
sI214595994
I310
sI214516123
I31
sI214821277
I948
sI214516127
I32
sI214509984
I5
sI214685424
I517
sI214753691
I855
sI214821285
I950
sI214563238
I209
sI214557095
I193
sI214708648
I642
sI214542761
I118
sI214714794
I711
sI214836757
I1087
sI214821292
I952
sI214829810
I1037
sI214821296
I953
sI214708657
I643
sI214821298
I954
sI214839731
I1131
sI214821300
I955
sI214821302
I956
sI214684745
I509
sI214594680
I309
sI214821279
I949
sI214839740
I1132
sI214684093
I497
sI214840412
I1143
sI214535675
I72
sI214821313
I960
sI214577495
I244
sI214645187
I409
sI214530500
I42
sI214836975
I1095
sI214530502
I43
sI214743495
I820
sI214669768
I452
sI214534601
I64
sI214837708
I1104
sI214698446
I596
sI214839373
I1126
sI214567376
I218
sI214821339
I962
sI214684115
I498
sI214532567
I55
sI214646578
I420
sI214821341
I963
sI214669790
I453
sI214843481
I1173
sI214602832
I347
sI214639074
I382
sI214826747
I991
sI214835775
I1079
sI214718252
I802
sI214639080
I383
sI214567404
I219
sI214716909
I731
sI214839791
I1134
sI214567408
I220
sI214696434
I587
sI214602227
I337
sI214837749
I1105
sI214645239
I410
sI214579704
I251
sI214821369
I965
sI214587898
I302
sI214508287
I1
sI214716924
I732
sI214821290
I951
sI214716926
I733
sI214714880
I712
sI214581761
I258
sI214716930
I735
sI214716932
I736
sI214563335
I210
sI214563337
I211
sI214821386
I970
sI214596107
I311
sI214712844
I698
sI214716941
I740
sI214573582
I232
sI214716943
I741
sI214821392
I973
sI214716945
I742
sI214691587
I564
sI214835732
I1077
sI214821397
I974
sI214718390
I805
sI214512152
I14
sI214821401
I975
sI214678044
I475
sI214706450
I632
sI214716958
I746
sI214716960
I747
sI214534689
I65
sI214716962
I748
sI214651427
I427
sI214840597
I1147
sI214579749
I252
sI214544936
I123
sI214716969
I750
sI214573865
I233
sI214716971
I751
sI214639149
I384
sI214819374
I869
sI214577711
I246
sI214534704
I66
sI214544945
I124
sI214534706
I67
sI214716980
I755
sI214838366
I1112
sI214716982
I756
sI214716984
I757
sI214716986
I758
sI214819387
I872
sI214602300
I338
sI214716990
I760
sI214648245
I422
sI214716512
I724
sI214819395
I874
sI214538820
I102
sI214716997
I761
sI214821367
I964
sI214606408
I349
sI214639177
I385
sI214669899
I454
sI214712908
I699
sI214717005
I764
sI214819406
I875
sI214717007
I765
sI214698577
I598
sI214819410
I876
sI214557268
I194
sI214559317
I202
sI214557270
I195
sI214821305
I957
sI214639192
I386
sI214684252
I499
sI214840762
I1149
sI214631008
I376
sI214547042
I133
sI214565475
I214
sI214645348
I412
sI214514278
I23
sI214530665
I44
sI214695015
I574
sI214514285
I24
sI214514287
I25
sI214688638
I536
sI214837005
I1097
sI214833782
I1054
sI214844023
I1184
sI214835585
I1073
sI214540922
I113
sI214843498
I1174
sI214826623
I984
sI214530690
I45
sI214844036
I1185
sI214512262
I15
sI214565512
I215
sI214645385
I413
sI214833802
I1056
sI214583947
I265
sI214602380
I339
sI214711438
I676
sI214530703
I46
sI214749840
I849
sI214530705
I47
sI214602386
I340
sI214821315
I961
sI214842442
I1165
sI214717089
I767
sI214819490
I881
sI214717093
I768
sI214532777
I56
sI214532782
I57
sI214713007
I700
sI214639280
I388
sI214839752
I1133
sI214832653
I1045
sI214536883
I86
sI214557367
I196
sI214536890
I87
sI214717115
I769
sI214536892
I88
sI214839997
I1140
sI214713022
I701
sI214821030
I943
sI214543040
I119
sI214840001
I1142
sI214534852
I68
sI214819526
I882
sI214538951
I103
sI214695073
I577
sI214819530
I883
sI214702796
I610
sI214748334
I846
sI214510712
I6
sI214819547
I884
sI214684382
I501
sI214536928
I89
sI214744528
I825
sI214715107
I716
sI214612708
I354
sI214718246
I801
sI214602470
I341
sI214835557
I1070
sI214557416
I197
sI214538985
I104
sI214702826
I611
sI214716965
I749
sI214538992
I105
sI214819736
I893
sI214749939
I850
sI214565623
I216
sI214692600
I569
sI214838831
I1118
sI214612730
I356
sI214748287
I838
sI214973182
I1194
sI214602495
I342
sI214819627
I888
sI214541060
I114
sI214820214
I911
sI214663942
I445
sI214698759
I600
sI214698761
I601
sI214819464
I878
sI214705100
I616
sI214612751
I357
sI214840792
I1150
sI214651670
I430
sI214600472
I313
sI214711087
I670
sI214840415
I1144
sI214539039
I106
sI214711074
I667
sI214743515
I822
sI214711078
I668
sI214680369
I481
sI214512425
I16
sI214711082
I669
sI214748295
I841
sI214600492
I314
sI214512429
I17
sI214702895
I612
sI214612785
I360
sI214680371
I482
sI214838750
I1117
sI214838070
I1109
sI214835900
I1080
sI214709807
I657
sI214843871
I1181
sI214821307
I958
sI214702912
I613
sI214685152
I515
sI214842600
I1167
sI214835450
I1069
sI214645575
I415
sI214839311
I1123
sI214840892
I1156
sI214687985
I531
sI214710285
I663
sI214695268
I583
sI214712235
I689
sI214715218
I717
sI214700885
I603
sI214844246
I1188
sI214600535
I315
sI214826803
I995
sI214596446
I312
sI214835561
I1071
sI214684513
I502
sI214549346
I135
sI214710075
I659
sI214555492
I187
sI214717001
I762
sI214717286
I771
sI214843472
I1172
sI214819740
I895
sI214819691
I889
sI214555500
I188
sI214602605
I343
sI214537070
I90
sI214691645
I566
sI214645618
I416
sI214683690
I490
sI214821377
I968
sI214712126
I686
sI214688630
I534
sI214821309
I959
sI214844002
I1182
sI214554431
I176
sI214688636
I535
sI214535038
I70
sI214717312
I773
sI214819468
I879
sI214717271
I770
sI214688645
I537
sI214717318
I774
sI214819719
I890
sI214819721
I891
sI214680459
I483
sI214844300
I1191
sI214709741
I655
sI214819734
I892
sI214629272
I369
sI214668185
I450
sI214819738
I894
sI214533020
I58
sI214774685
I858
sI214533022
I59
sI214774687
I859
sI214688672
I539
sI214836129
I1081
sI214533026
I60
sI214676387
I466
sI214744260
I823
sI214692776
I570
sI214674690
I462
sI214819760
I896
sI214600625
I316
sI214819762
I897
sI214839795
I1135
sI214839257
I1122
sI214678453
I477
sI214629302
I370
sI214612920
I361
sI214606777
I350
sI214533050
I61
sI214819772
I898
sI214600637
I317
sI214700990
I604
sI214819775
I899
sI214835216
I1066
sI214712113
I684
sI214684610
I503
sI214629315
I371
sI214819781
I900
sI214685857
I522
sI214553544
I161
sI214602699
I344
sI214600652
I318
sI214821380
I969
sI214602703
I345
sI214819796
I901
sI214819798
I902
sI214819800
I903
sI214714927
I713
sI214705119
I617
sI214674401
I456
sI214512611
I18
sI214553572
I162
sI214635493
I377
sI214842345
I1163
sI214842292
I1161
sI214553580
I163
sI214559726
I203
sI214821373
I967
sI214559730
I204
sI214826835
I1000
sI214539253
I107
sI214658038
I441
sI214711290
I671
sI214705147
I618
sI214594556
I304
sI214629373
I372
sI214678526
I479
sI214826837
I1001
sI214578176
I248
sI214716928
I734
sI214684843
I512
sI214629382
I373
sI214695425
I585
sI214717612
I780
sI214578007
I247
sI214791682
I864
sI214711310
I672
sI214684845
I513
sI214674688
I461
sI214508563
I2
sI214714929
I714
sI214711318
I673
sI214716975
I753
sI214711322
I674
sI214612704
I353
sI214600734
I319
sI214842399
I1164
sI214594592
I305
sI214743367
I818
sI214696997
I588
sI214826612
I979
sI214839864
I1138
sI214541355
I115
sI214684717
I506
sI214844297
I1190
sI214602802
I346
sI214527028
I41
sI214535006
I69
sI214516790
I34
sI214716937
I738
sI214716956
I745
sI214684730
I507
sI214684734
I508
sI214586432
I280
sI214551617
I137
sI214716939
I739
sI214574150
I234
sI214594633
I306
sI214551626
I138
sI214694987
I572
sI214836300
I1082
sI214551630
I139
sI214701135
I605
sI214551632
I140
sI214602834
I348
sI214684757
I510
sI214688612
I533
sI214832655
I1046
sI214838364
I1111
sI214823908
I976
sI214676574
I467
sI214636389
I378
sI214838368
I1113
sI214676578
I468
sI214828987
I1031
sI214695013
I573
sI214643814
I400
sI214594663
I307
sI214748265
I836
sI214582378
I259
sI214613863
I366
sI214582380
I260
sI214711408
I675
sI214582385
I261
sI214716947
I743
sI214838462
I1115
sI214594678
I308
sI214600824
I320
sI214557817
I198
sI214717562
I779
sI214748285
I837
sI214738453
I814
sI214553730
I164
sI214748291
I839
sI214748293
I840
sI214543494
I120
sI214553735
I165
sI214748297
I842
sI214748300
I843
sI214680718
I485
sI214553743
I166
sI214716952
I744
sI214832274
I1039
sI214572182
I224
sI214748312
I845
sI214695065
I575
sI214701212
I606
sI214840526
I1146
sI214695071
I576
sI214641825
I396
sI214553762
I167
sI214840483
I1145
sI214844004
I1183
sI214718321
I803
sI214684841
I511
sI214697130
I589
sI214561991
I207
sI214706205
I628
sI214612777
I359
sI214717614
I781
sI214748336
I847
sI214697137
I590
sI214748338
I848
sI214686900
I524
sI214686902
I525
sI214695097
I578
sI214695099
I579
sI214674620
I457
sI214821388
I971
sI214510783
I7
sI214554675
I182
sI214551748
I141
sI214844278
I1189
sI214537415
I91
sI214744265
I824
sI214572234
I225
sI214840813
I1151
sI214607186
I351
sI214832709
I1050
sI214612710
I355
sI214840867
I1153
sI214582485
I262
sI214695127
I580
sI214711517
I677
sI214697182
I591
sI214609445
I352
sI214551776
I142
sI214746339
I831
sI214510820
I9
sI214582502
I263
sI214838503
I1116
sI214572264
I226
sI214709685
I653
sI214541548
I117
sI214678766
I480
sI214820392
I922
sI214555890
I189
sI214674675
I458
sI214553844
I168
sI214674677
I459
sI214821390
I972
sI214674684
I460
sI214746365
I832
sI214510805
I8
sI214551808
I143
sI214586625
I281
sI214551810
I144
sI214839851
I1137
sI214711556
I678
sI214555910
I190
sI214551815
I145
sI214553865
I170
sI214842463
I1166
sI214746380
I833
sI214582541
I264
sI214684942
I514
sI214716973
I752
sI214711569
I679
sI214746386
I834
sI214586645
I282
sI214537494
I92
sI214712537
I695
sI214656281
I435
sI214725508
I810
sI214586651
I283
sI214600989
I321
sI214586655
I284
sI214819550
I885
sI214819376
I870
sI214551842
I146
sI214839995
I1139
sI214576423
I238
sI214746410
I835
sI214531372
I48
sI214579762
I253
sI214551855
I147
sI214601010
I322
sI214551860
I148
sI214601015
I324
sI214697272
I592
sI214652220
I431
sI214717757
I784
sI214836789
I1089
sI214674752
I464
sI214717498
I777
sI214843556
I1176
sI214586692
I285
sI214819382
I871
sI214586694
I286
sI214601034
I325
sI214709580
I645
sI214691150
I545
sI214553936
I171
sI214709585
I646
sI214601042
I327
sI214753507
I852
sI214674772
I465
sI214709589
I647
sI214551894
I150
sI214586711
I287
sI214820186
I904
sI214673295
I455
sI214709597
I648
sI214820190
I905
sI214820192
I906
sI214551905
I151
sI214586722
I288
sI214551907
I152
sI214601060
I328
sI214551909
I153
sI214820199
I908
sI214551913
I154
sI214718117
I794
sI214551917
I155
sI214680945
I486
sI214820210
I910
sI214639987
I390
sI214691188
I546
sI214697334
I593
sI214586743
I289
sI214783352
I861
sI214556025
I191
sI214705530
I620
sI214651455
I428
sI214691197
I547
sI214656382
I438
sI214820225
I912
sI214709634
I649
sI214753515
I854
sI214691482
I561
sI214819393
I873
sI214716988
I759
sI214560140
I205
sI214709645
I650
sI214820240
I916
sI214640017
I391
sI214837762
I1106
sI214839808
I1136
sI214717847
I786
sI214820248
I917
sI214645316
I411
sI214717850
I787
sI214837487
I1102
sI214820252
I918
sI214601117
I329
sI214539845
I110
sI214709666
I651
sI214717860
I788
sI214820261
I919
sI214832550
I1041
sI214511015
I12
sI214832552
I1042
sI214688668
I538
sI214717867
I789
sI214832557
I1043
sI214832559
I1044
sI214709681
I652
sI214586805
I290
sI214691255
I548
sI214717880
I791
sI214717730
I782
sI214760891
I856
sI214717888
I792
sI214837050
I1099
sI214717890
I793
sI214717003
I763
sI214535621
I71
sI214537670
I93
sI214509000
I3
sI214705610
I621
sI214837764
I1107
sI214695167
I581
sI214558160
I199
sI214676945
I469
sI214744530
I826
sI214791635
I863
sI214545879
I125
sI214697432
I594
sI214691293
I549
sI214531550
I49
sI214713823
I702
sI214640096
I392
sI214716667
I726
sI214709735
I654
sI214717877
I790
sI214843565
I1177
sI214601197
I330
sI214836718
I1083
sI214584815
I266
sI214558192
I200
sI214584817
I267
sI214836722
I1084
sI214695412
I584
sI214584821
I268
sI214717436
I776
sI214691319
I550
sI214840824
I1152
sI214717012
I766
sI214553855
I169
sI214535677
I73
sI214584830
I269
sI214698581
I599
sI214535681
I74
sI214601218
I331
sI214535683
I75
sI214691332
I551
sI214535685
I76
sI214545928
I126
sI214629900
I374
sI214601229
I332
sI214836750
I1086
sI214545935
I127
sI214678524
I478
sI214738449
I812
sI214513170
I19
sI214738451
I813
sI214832660
I1048
sI214691349
I552
sI214743497
I821
sI214836761
I1088
sI214826927
I1015
sI214564380
I212
sI214838244
I1110
sI214832670
I1049
sI214820383
I920
sI214709792
I656
sI214835120
I1063
sI214531618
I50
sI214820387
I921
sI214510854
I10
sI214840871
I1154
sI214717310
I772
sI214840873
I1155
sI214554155
I172
sI214820396
I923
sI214705757
I622
sI214820400
I924
sI214838833
I1119
sI214543922
I121
sI214744629
I827
sI214580790
I254
sI214691383
I553
sI214836793
I1090
sI214820447
I929
sI214648380
I423
sI214820413
I926
sI214691390
I554
sI214820415
I927
sI214539842
I109
sI214691396
I555
sI214509125
I4
sI214844042
I1186
sI214838855
I1120
sI214826925
I1014
sI214819552
I886
sI214684258
I500
sI214829312
I1035
sI214842296
I1162
sI214840914
I1157
sI214836821
I1091
sI214832728
I1051
sI214820441
I928
sI214832730
I1052
sI214827062
I1030
sI214644317
I401
sI214648415
I424
sI214537826
I94
sI214819472
I880
sI214691428
I557
sI214819430
I877
sI214586983
I291
sI214820456
I930
sI214834892
I1060
sI214820458
I931
sI214584939
I270
sI214691437
I558
sI214826606
I977
sI214826608
I978
sI214691441
I559
sI214701682
I608
sI214843667
I1179
sI214701684
I609
sI214826615
I980
sI214826617
I981
sI214748302
I844
sI214826619
I982
sI214826621
I983
sI214662782
I442
sI214664831
I446
sI214537856
I95
sI214718400
I808
sI214552194
I156
sI214826627
I986
sI214513284
I20
sI214613638
I363
sI214513288
I21
sI214769291
I857
sI214613645
I364
sI214576783
I239
sI214711952
I680
sI214576787
I240
sI214584980
I271
sI214691480
I560
sI214584986
I272
sI214645391
I414
sI214664861
I447
sI214836748
I1085
sI214835141
I1064
sI214584992
I273
sI214546082
I128
sI214510875
I11
sI214546085
I129
sI214834854
I1057
sI214546089
I130
sI214554283
I173
sI214838957
I1121
sI214841006
I1158
sI214834865
I1058
sI214832657
I1047
sI214546102
I131
sI214718409
I809
sI214574777
I235
sI214836930
I1092
sI214840599
I1148
sI214650566
I425
sI214744775
I828
sI214546121
I132
sI214517450
I35
sI214744779
I829
sI214826700
I987
sI214656290
I436
sI214517454
I36
sI214718160
I795
sI214712017
I682
sI214709970
I658
sI214513363
I22
sI214835117
I1062
sI214712270
I692
sI214523606
I38
sI214664919
I448
sI214716120
I719
sI214718169
I797
sI214650587
I426
sI214639226
I387
sI214836958
I1093
sI214835197
I1065
sI214836960
I1094
sI214841060
I1159
sI214691557
I563
sI214743335
I815
sI214554350
I174
sI214537967
I96
sI214646512
I417
sI214841640
I1160
sI214691426
I556
sI214554358
I175
sI214718203
I799
sI214576892
I241
sI214680515
I484
sI214718207
I800
sI214644352
I402
sI214834946
I1061
sI214540035
I111
sI214712278
I694
sI214826625
I985
sI214832428
I1040
sI214837003
I1096
sI214537997
I97
sI214646542
I418
sI214691117
I544
sI214826769
I992
sI214538002
I98
sI214827000
I1018
sI214646550
I419
sI214640407
I393
sI214638712
I381
sI214821371
I966
sI214540070
I112
sI214640424
I394
sI214835760
I1078
sI214716202
I720
sI214712107
I683
sI214564652
I213
sI214538030
I99
sI214826799
I993
sI214691632
I565
sI214667912
I449
sI214585138
I274
sI214696243
I586
sI214835634
I1074
sI214837046
I1098
sI214601012
I323
sI214826810
I996
sI214708027
I636
sI214712124
I685
sI214523709
I39
sI214552382
I157
sI214601535
I333
sI214826816
I997
sI214552385
I158
sI214712130
I687
sI214743350
I817
sI214705991
I623
sI214712137
I688
sI214716234
I721
sI214717751
I783
sI214708044
I637
sI214826829
I998
sI214706000
I624
sI214826833
I999
sI214658019
I440
sI214710101
I660
sI214717412
I775
sI214640475
I395
sI214826844
I1002
sI214691677
I567
sI214550366
I136
sI214691679
I568
sI214531937
I51
sI214613861
I365
sI214560615
I206
sI214716935
I737
sI214613865
I367
sI214844377
I1193
sI214613870
I368
sI214699888
I602
sI214710129
I661
sI214710131
I662
sI214826872
I1003
sI214821275
I947
sI214820842
I933
sI214826878
I1005
sI214708095
I638
sI214642560
I397
sI214552449
I159
sI214800262
I865
sI214826889
I1006
sI214800266
I866
sI214826891
I1007
sI214800268
I867
sI214826893
I1008
sI214554510
I177
sI214570895
I221
sI214800272
I868
sI214826897
I1009
sI214826900
I1010
sI214668270
I451
sI214554519
I178
sI214656324
I437
sI214687642
I526
sI214826908
I1012
sI214630042
I375
sI214683973
I492
sI214826912
I1013
sI214831663
I1038
sI214691484
I562
sI214644650
I403
sI214587307
I292
sI214709160
I644
sI214572973
I227
sI214711965
I681
sI214712240
I691
sI214718385
I804
sI214556595
I192
sI214716341
I722
sI214644662
I404
sI214697915
I595
sI214718396
I806
sI214826801
I994
sI214718398
I807
sI214701495
I607
sI214677440
I470
sI214687685
I527
sI214601670
I334
sI214544327
I122
sI214585288
I275
sI214573001
I228
sI214826955
I1017
sI214612940
I362
sI214683598
I487
sI214712272
I693
sI214687736
I529
sI214570963
I222
sI214687702
I528
sI214663127
I443
sI214837490
I1103
sI214554585
I179
sI214552543
I160
sI214601040
I326
sI214706147
I626
sI214636517
I379
sI214532072
I52
sI214539260
I108
sI214725532
I811
sI214826705
I989
sI214551890
I149
sI214843374
I1168
sI214690813
I542
sI214687742
I530
sI214829737
I1036
sI214587384
I293
sI214706169
I627
sI214536187
I77
sI214646780
I421
sI214827005
I1019
sI214663166
I444
sI214827007
I1020
s.