(dp0
I1
I214508287
sI2
I214508563
sI3
I214509000
sI4
I214509125
sI5
I214509984
sI6
I214510712
sI7
I214510783
sI8
I214510805
sI9
I214510820
sI10
I214510854
sI11
I214510875
sI12
I214511015
sI13
I214511696
sI14
I214512152
sI15
I214512262
sI16
I214512425
sI17
I214512429
sI18
I214512611
sI19
I214513170
sI20
I214513284
sI21
I214513288
sI22
I214513363
sI23
I214514278
sI24
I214514285
sI25
I214514287
sI26
I214515883
sI27
I214516005
sI28
I214516031
sI29
I214516033
sI30
I214516040
sI31
I214516123
sI32
I214516127
sI33
I214516768
sI34
I214516790
sI35
I214517450
sI36
I214517454
sI37
I214517880
sI38
I214523606
sI39
I214523709
sI40
I214526190
sI41
I214527028
sI42
I214530500
sI43
I214530502
sI44
I214530665
sI45
I214530690
sI46
I214530703
sI47
I214530705
sI48
I214531372
sI49
I214531550
sI50
I214531618
sI51
I214531937
sI52
I214532072
sI53
I214532107
sI54
I214532147
sI55
I214532567
sI56
I214532777
sI57
I214532782
sI58
I214533020
sI59
I214533022
sI60
I214533026
sI61
I214533050
sI62
I214534241
sI63
I214534464
sI64
I214534601
sI65
I214534689
sI66
I214534704
sI67
I214534706
sI68
I214534852
sI69
I214535006
sI70
I214535038
sI71
I214535621
sI72
I214535675
sI73
I214535677
sI74
I214535681
sI75
I214535683
sI76
I214535685
sI77
I214536187
sI78
I214536281
sI79
I214536392
sI80
I214536412
sI81
I214536435
sI82
I214536440
sI83
I214536502
sI84
I214536547
sI85
I214536577
sI86
I214536883
sI87
I214536890
sI88
I214536892
sI89
I214536928
sI90
I214537070
sI91
I214537415
sI92
I214537494
sI93
I214537670
sI94
I214537826
sI95
I214537856
sI96
I214537967
sI97
I214537997
sI98
I214538002
sI99
I214538030
sI100
I214538276
sI101
I214538597
sI102
I214538820
sI103
I214538951
sI104
I214538985
sI105
I214538992
sI106
I214539039
sI107
I214539253
sI108
I214539260
sI109
I214539842
sI110
I214539845
sI111
I214540035
sI112
I214540070
sI113
I214540922
sI114
I214541060
sI115
I214541355
sI116
I214541525
sI117
I214541548
sI118
I214542761
sI119
I214543040
sI120
I214543494
sI121
I214543922
sI122
I214544327
sI123
I214544936
sI124
I214544945
sI125
I214545879
sI126
I214545928
sI127
I214545935
sI128
I214546082
sI129
I214546085
sI130
I214546089
sI131
I214546102
sI132
I214546121
sI133
I214547042
sI134
I214548744
sI135
I214549346
sI136
I214550366
sI137
I214551617
sI138
I214551626
sI139
I214551630
sI140
I214551632
sI141
I214551748
sI142
I214551776
sI143
I214551808
sI144
I214551810
sI145
I214551815
sI146
I214551842
sI147
I214551855
sI148
I214551860
sI149
I214551890
sI150
I214551894
sI151
I214551905
sI152
I214551907
sI153
I214551909
sI154
I214551913
sI155
I214551917
sI156
I214552194
sI157
I214552382
sI158
I214552385
sI159
I214552449
sI160
I214552543
sI161
I214553544
sI162
I214553572
sI163
I214553580
sI164
I214553730
sI165
I214553735
sI166
I214553743
sI167
I214553762
sI168
I214553844
sI169
I214553855
sI170
I214553865
sI171
I214553936
sI172
I214554155
sI173
I214554283
sI174
I214554350
sI175
I214554358
sI176
I214554431
sI177
I214554510
sI178
I214554519
sI179
I214554585
sI180
I214554637
sI181
I214554662
sI182
I214554675
sI183
I214554765
sI184
I214554785
sI185
I214554967
sI186
I214554982
sI187
I214555492
sI188
I214555500
sI189
I214555890
sI190
I214555910
sI191
I214556025
sI192
I214556595
sI193
I214557095
sI194
I214557268
sI195
I214557270
sI196
I214557367
sI197
I214557416
sI198
I214557817
sI199
I214558160
sI200
I214558192
sI201
I214558807
sI202
I214559317
sI203
I214559726
sI204
I214559730
sI205
I214560140
sI206
I214560615
sI207
I214561991
sI208
I214563133
sI209
I214563238
sI210
I214563335
sI211
I214563337
sI212
I214564380
sI213
I214564652
sI214
I214565475
sI215
I214565512
sI216
I214565623
sI217
I214567005
sI218
I214567376
sI219
I214567404
sI220
I214567408
sI221
I214570895
sI222
I214570963
sI223
I214571188
sI224
I214572182
sI225
I214572234
sI226
I214572264
sI227
I214572973
sI228
I214573001
sI229
I214573059
sI230
I214573168
sI231
I214573357
sI232
I214573582
sI233
I214573865
sI234
I214574150
sI235
I214574777
sI236
I214575210
sI237
I214575491
sI238
I214576423
sI239
I214576783
sI240
I214576787
sI241
I214576892
sI242
I214577302
sI243
I214577492
sI244
I214577495
sI245
I214577518
sI246
I214577711
sI247
I214578007
sI248
I214578176
sI249
I214578230
sI250
I214579378
sI251
I214579704
sI252
I214579749
sI253
I214579762
sI254
I214580790
sI255
I214581427
sI256
I214581489
sI257
I214581551
sI258
I214581761
sI259
I214582378
sI260
I214582380
sI261
I214582385
sI262
I214582485
sI263
I214582502
sI264
I214582541
sI265
I214583947
sI266
I214584815
sI267
I214584817
sI268
I214584821
sI269
I214584830
sI270
I214584939
sI271
I214584980
sI272
I214584986
sI273
I214584992
sI274
I214585138
sI275
I214585288
sI276
I214585395
sI277
I214585397
sI278
I214585597
sI279
I214585633
sI280
I214586432
sI281
I214586625
sI282
I214586645
sI283
I214586651
sI284
I214586655
sI285
I214586692
sI286
I214586694
sI287
I214586711
sI288
I214586722
sI289
I214586743
sI290
I214586805
sI291
I214586983
sI292
I214587307
sI293
I214587384
sI294
I214587437
sI295
I214587590
sI296
I214587609
sI297
I214587643
sI298
I214587650
sI299
I214587697
sI300
I214587785
sI301
I214587800
sI302
I214587898
sI303
I214589606
sI304
I214594556
sI305
I214594592
sI306
I214594633
sI307
I214594663
sI308
I214594678
sI309
I214594680
sI310
I214595994
sI311
I214596107
sI312
I214596446
sI313
I214600472
sI314
I214600492
sI315
I214600535
sI316
I214600625
sI317
I214600637
sI318
I214600652
sI319
I214600734
sI320
I214600824
sI321
I214600989
sI322
I214601010
sI323
I214601012
sI324
I214601015
sI325
I214601034
sI326
I214601040
sI327
I214601042
sI328
I214601060
sI329
I214601117
sI330
I214601197
sI331
I214601218
sI332
I214601229
sI333
I214601535
sI334
I214601670
sI335
I214601805
sI336
I214601812
sI337
I214602227
sI338
I214602300
sI339
I214602380
sI340
I214602386
sI341
I214602470
sI342
I214602495
sI343
I214602605
sI344
I214602699
sI345
I214602703
sI346
I214602802
sI347
I214602832
sI348
I214602834
sI349
I214606408
sI350
I214606777
sI351
I214607186
sI352
I214609445
sI353
I214612704
sI354
I214612708
sI355
I214612710
sI356
I214612730
sI357
I214612751
sI358
I214612760
sI359
I214612777
sI360
I214612785
sI361
I214612920
sI362
I214612940
sI363
I214613638
sI364
I214613645
sI365
I214613861
sI366
I214613863
sI367
I214613865
sI368
I214613870
sI369
I214629272
sI370
I214629302
sI371
I214629315
sI372
I214629373
sI373
I214629382
sI374
I214629900
sI375
I214630042
sI376
I214631008
sI377
I214635493
sI378
I214636389
sI379
I214636517
sI380
I214636794
sI381
I214638712
sI382
I214639074
sI383
I214639080
sI384
I214639149
sI385
I214639177
sI386
I214639192
sI387
I214639226
sI388
I214639280
sI389
I214639616
sI390
I214639987
sI391
I214640017
sI392
I214640096
sI393
I214640407
sI394
I214640424
sI395
I214640475
sI396
I214641825
sI397
I214642560
sI398
I214642805
sI399
I214643045
sI400
I214643814
sI401
I214644317
sI402
I214644352
sI403
I214644650
sI404
I214644662
sI405
I214644960
sI406
I214645010
sI407
I214645042
sI408
I214645097
sI409
I214645187
sI410
I214645239
sI411
I214645316
sI412
I214645348
sI413
I214645385
sI414
I214645391
sI415
I214645575
sI416
I214645618
sI417
I214646512
sI418
I214646542
sI419
I214646550
sI420
I214646578
sI421
I214646780
sI422
I214648245
sI423
I214648380
sI424
I214648415
sI425
I214650566
sI426
I214650587
sI427
I214651427
sI428
I214651455
sI429
I214651580
sI430
I214651670
sI431
I214652220
sI432
I214652265
sI433
I214652957
sI434
I214652970
sI435
I214656281
sI436
I214656290
sI437
I214656324
sI438
I214656382
sI439
I214657318
sI440
I214658019
sI441
I214658038
sI442
I214662782
sI443
I214663127
sI444
I214663166
sI445
I214663942
sI446
I214664831
sI447
I214664861
sI448
I214664919
sI449
I214667912
sI450
I214668185
sI451
I214668270
sI452
I214669768
sI453
I214669790
sI454
I214669899
sI455
I214673295
sI456
I214674401
sI457
I214674620
sI458
I214674675
sI459
I214674677
sI460
I214674684
sI461
I214674688
sI462
I214674690
sI463
I214674695
sI464
I214674752
sI465
I214674772
sI466
I214676387
sI467
I214676574
sI468
I214676578
sI469
I214676945
sI470
I214677440
sI471
I214677512
sI472
I214677566
sI473
I214677596
sI474
I214677746
sI475
I214678044
sI476
I214678076
sI477
I214678453
sI478
I214678524
sI479
I214678526
sI480
I214678766
sI481
I214680369
sI482
I214680371
sI483
I214680459
sI484
I214680515
sI485
I214680718
sI486
I214680945
sI487
I214683598
sI488
I214683667
sI489
I214683673
sI490
I214683690
sI491
I214683735
sI492
I214683973
sI493
I214683975
sI494
I214684010
sI495
I214684020
sI496
I214684025
sI497
I214684093
sI498
I214684115
sI499
I214684252
sI500
I214684258
sI501
I214684382
sI502
I214684513
sI503
I214684610
sI504
I214684702
sI505
I214684715
sI506
I214684717
sI507
I214684730
sI508
I214684734
sI509
I214684745
sI510
I214684757
sI511
I214684841
sI512
I214684843
sI513
I214684845
sI514
I214684942
sI515
I214685152
sI516
I214685422
sI517
I214685424
sI518
I214685754
sI519
I214685792
sI520
I214685795
sI521
I214685820
sI522
I214685857
sI523
I214686086
sI524
I214686900
sI525
I214686902
sI526
I214687642
sI527
I214687685
sI528
I214687702
sI529
I214687736
sI530
I214687742
sI531
I214687985
sI532
I214688098
sI533
I214688612
sI534
I214688630
sI535
I214688636
sI536
I214688638
sI537
I214688645
sI538
I214688668
sI539
I214688672
sI540
I214688711
sI541
I214690110
sI542
I214690813
sI543
I214690845
sI544
I214691117
sI545
I214691150
sI546
I214691188
sI547
I214691197
sI548
I214691255
sI549
I214691293
sI550
I214691319
sI551
I214691332
sI552
I214691349
sI553
I214691383
sI554
I214691390
sI555
I214691396
sI556
I214691426
sI557
I214691428
sI558
I214691437
sI559
I214691441
sI560
I214691480
sI561
I214691482
sI562
I214691484
sI563
I214691557
sI564
I214691587
sI565
I214691632
sI566
I214691645
sI567
I214691677
sI568
I214691679
sI569
I214692600
sI570
I214692776
sI571
I214694964
sI572
I214694987
sI573
I214695013
sI574
I214695015
sI575
I214695065
sI576
I214695071
sI577
I214695073
sI578
I214695097
sI579
I214695099
sI580
I214695127
sI581
I214695167
sI582
I214695195
sI583
I214695268
sI584
I214695412
sI585
I214695425
sI586
I214696243
sI587
I214696434
sI588
I214696997
sI589
I214697130
sI590
I214697137
sI591
I214697182
sI592
I214697272
sI593
I214697334
sI594
I214697432
sI595
I214697915
sI596
I214698446
sI597
I214698465
sI598
I214698577
sI599
I214698581
sI600
I214698759
sI601
I214698761
sI602
I214699888
sI603
I214700885
sI604
I214700990
sI605
I214701135
sI606
I214701212
sI607
I214701495
sI608
I214701682
sI609
I214701684
sI610
I214702796
sI611
I214702826
sI612
I214702895
sI613
I214702912
sI614
I214704180
sI615
I214704182
sI616
I214705100
sI617
I214705119
sI618
I214705147
sI619
I214705494
sI620
I214705530
sI621
I214705610
sI622
I214705757
sI623
I214705991
sI624
I214706000
sI625
I214706102
sI626
I214706147
sI627
I214706169
sI628
I214706205
sI629
I214706432
sI630
I214706437
sI631
I214706441
sI632
I214706450
sI633
I214706460
sI634
I214706462
sI635
I214707883
sI636
I214708027
sI637
I214708044
sI638
I214708095
sI639
I214708239
sI640
I214708303
sI641
I214708370
sI642
I214708648
sI643
I214708657
sI644
I214709160
sI645
I214709580
sI646
I214709585
sI647
I214709589
sI648
I214709597
sI649
I214709634
sI650
I214709645
sI651
I214709666
sI652
I214709681
sI653
I214709685
sI654
I214709735
sI655
I214709741
sI656
I214709792
sI657
I214709807
sI658
I214709970
sI659
I214710075
sI660
I214710101
sI661
I214710129
sI662
I214710131
sI663
I214710285
sI664
I214710287
sI665
I214710294
sI666
I214710328
sI667
I214711074
sI668
I214711078
sI669
I214711082
sI670
I214711087
sI671
I214711290
sI672
I214711310
sI673
I214711318
sI674
I214711322
sI675
I214711408
sI676
I214711438
sI677
I214711517
sI678
I214711556
sI679
I214711569
sI680
I214711952
sI681
I214711965
sI682
I214712017
sI683
I214712107
sI684
I214712113
sI685
I214712124
sI686
I214712126
sI687
I214712130
sI688
I214712137
sI689
I214712235
sI690
I214712237
sI691
I214712240
sI692
I214712270
sI693
I214712272
sI694
I214712278
sI695
I214712537
sI696
I214712681
sI697
I214712687
sI698
I214712844
sI699
I214712908
sI700
I214713007
sI701
I214713022
sI702
I214713823
sI703
I214713847
sI704
I214714599
sI705
I214714663
sI706
I214714717
sI707
I214714721
sI708
I214714732
sI709
I214714757
sI710
I214714760
sI711
I214714794
sI712
I214714880
sI713
I214714927
sI714
I214714929
sI715
I214715102
sI716
I214715107
sI717
I214715218
sI718
I214716110
sI719
I214716120
sI720
I214716202
sI721
I214716234
sI722
I214716341
sI723
I214716467
sI724
I214716512
sI725
I214716643
sI726
I214716667
sI727
I214716671
sI728
I214716714
sI729
I214716746
sI730
I214716752
sI731
I214716909
sI732
I214716924
sI733
I214716926
sI734
I214716928
sI735
I214716930
sI736
I214716932
sI737
I214716935
sI738
I214716937
sI739
I214716939
sI740
I214716941
sI741
I214716943
sI742
I214716945
sI743
I214716947
sI744
I214716952
sI745
I214716956
sI746
I214716958
sI747
I214716960
sI748
I214716962
sI749
I214716965
sI750
I214716969
sI751
I214716971
sI752
I214716973
sI753
I214716975
sI754
I214716977
sI755
I214716980
sI756
I214716982
sI757
I214716984
sI758
I214716986
sI759
I214716988
sI760
I214716990
sI761
I214716997
sI762
I214717001
sI763
I214717003
sI764
I214717005
sI765
I214717007
sI766
I214717012
sI767
I214717089
sI768
I214717093
sI769
I214717115
sI770
I214717271
sI771
I214717286
sI772
I214717310
sI773
I214717312
sI774
I214717318
sI775
I214717412
sI776
I214717436
sI777
I214717498
sI778
I214717507
sI779
I214717562
sI780
I214717612
sI781
I214717614
sI782
I214717730
sI783
I214717751
sI784
I214717757
sI785
I214717822
sI786
I214717847
sI787
I214717850
sI788
I214717860
sI789
I214717867
sI790
I214717877
sI791
I214717880
sI792
I214717888
sI793
I214717890
sI794
I214718117
sI795
I214718160
sI796
I214718167
sI797
I214718169
sI798
I214718197
sI799
I214718203
sI800
I214718207
sI801
I214718246
sI802
I214718252
sI803
I214718321
sI804
I214718385
sI805
I214718390
sI806
I214718396
sI807
I214718398
sI808
I214718400
sI809
I214718409
sI810
I214725508
sI811
I214725532
sI812
I214738449
sI813
I214738451
sI814
I214738453
sI815
I214743335
sI816
I214743341
sI817
I214743350
sI818
I214743367
sI819
I214743369
sI820
I214743495
sI821
I214743497
sI822
I214743515
sI823
I214744260
sI824
I214744265
sI825
I214744528
sI826
I214744530
sI827
I214744629
sI828
I214744775
sI829
I214744779
sI830
I214745323
sI831
I214746339
sI832
I214746365
sI833
I214746380
sI834
I214746386
sI835
I214746410
sI836
I214748265
sI837
I214748285
sI838
I214748287
sI839
I214748291
sI840
I214748293
sI841
I214748295
sI842
I214748297
sI843
I214748300
sI844
I214748302
sI845
I214748312
sI846
I214748334
sI847
I214748336
sI848
I214748338
sI849
I214749840
sI850
I214749939
sI851
I214753505
sI852
I214753507
sI853
I214753513
sI854
I214753515
sI855
I214753691
sI856
I214760891
sI857
I214769291
sI858
I214774685
sI859
I214774687
sI860
I214783350
sI861
I214783352
sI862
I214783357
sI863
I214791635
sI864
I214791682
sI865
I214800262
sI866
I214800266
sI867
I214800268
sI868
I214800272
sI869
I214819374
sI870
I214819376
sI871
I214819382
sI872
I214819387
sI873
I214819393
sI874
I214819395
sI875
I214819406
sI876
I214819410
sI877
I214819430
sI878
I214819464
sI879
I214819468
sI880
I214819472
sI881
I214819490
sI882
I214819526
sI883
I214819530
sI884
I214819547
sI885
I214819550
sI886
I214819552
sI887
I214819562
sI888
I214819627
sI889
I214819691
sI890
I214819719
sI891
I214819721
sI892
I214819734
sI893
I214819736
sI894
I214819738
sI895
I214819740
sI896
I214819760
sI897
I214819762
sI898
I214819772
sI899
I214819775
sI900
I214819781
sI901
I214819796
sI902
I214819798
sI903
I214819800
sI904
I214820186
sI905
I214820190
sI906
I214820192
sI907
I214820197
sI908
I214820199
sI909
I214820201
sI910
I214820210
sI911
I214820214
sI912
I214820225
sI913
I214820231
sI914
I214820233
sI915
I214820237
sI916
I214820240
sI917
I214820248
sI918
I214820252
sI919
I214820261
sI920
I214820383
sI921
I214820387
sI922
I214820392
sI923
I214820396
sI924
I214820400
sI925
I214820402
sI926
I214820413
sI927
I214820415
sI928
I214820441
sI929
I214820447
sI930
I214820456
sI931
I214820458
sI932
I214820812
sI933
I214820842
sI934
I214820938
sI935
I214821011
sI936
I214821013
sI937
I214821015
sI938
I214821017
sI939
I214821020
sI940
I214821022
sI941
I214821024
sI942
I214821028
sI943
I214821030
sI944
I214821032
sI945
I214821037
sI946
I214821272
sI947
I214821275
sI948
I214821277
sI949
I214821279
sI950
I214821285
sI951
I214821290
sI952
I214821292
sI953
I214821296
sI954
I214821298
sI955
I214821300
sI956
I214821302
sI957
I214821305
sI958
I214821307
sI959
I214821309
sI960
I214821313
sI961
I214821315
sI962
I214821339
sI963
I214821341
sI964
I214821367
sI965
I214821369
sI966
I214821371
sI967
I214821373
sI968
I214821377
sI969
I214821380
sI970
I214821386
sI971
I214821388
sI972
I214821390
sI973
I214821392
sI974
I214821397
sI975
I214821401
sI976
I214823908
sI977
I214826606
sI978
I214826608
sI979
I214826612
sI980
I214826615
sI981
I214826617
sI982
I214826619
sI983
I214826621
sI984
I214826623
sI985
I214826625
sI986
I214826627
sI987
I214826700
sI988
I214826702
sI989
I214826705
sI990
I214826715
sI991
I214826747
sI992
I214826769
sI993
I214826799
sI994
I214826801
sI995
I214826803
sI996
I214826810
sI997
I214826816
sI998
I214826829
sI999
I214826833
sI1000
I214826835
sI1001
I214826837
sI1002
I214826844
sI1003
I214826872
sI1004
I214826876
sI1005
I214826878
sI1006
I214826889
sI1007
I214826891
sI1008
I214826893
sI1009
I214826897
sI1010
I214826900
sI1011
I214826906
sI1012
I214826908
sI1013
I214826912
sI1014
I214826925
sI1015
I214826927
sI1016
I214826953
sI1017
I214826955
sI1018
I214827000
sI1019
I214827005
sI1020
I214827007
sI1021
I214827009
sI1022
I214827020
sI1023
I214827022
sI1024
I214827024
sI1025
I214827026
sI1026
I214827028
sI1027
I214827030
sI1028
I214827032
sI1029
I214827035
sI1030
I214827062
sI1031
I214828987
sI1032
I214829257
sI1033
I214829282
sI1034
I214829285
sI1035
I214829312
sI1036
I214829737
sI1037
I214829810
sI1038
I214831663
sI1039
I214832274
sI1040
I214832428
sI1041
I214832550
sI1042
I214832552
sI1043
I214832557
sI1044
I214832559
sI1045
I214832653
sI1046
I214832655
sI1047
I214832657
sI1048
I214832660
sI1049
I214832670
sI1050
I214832709
sI1051
I214832728
sI1052
I214832730
sI1053
I214833309
sI1054
I214833782
sI1055
I214833800
sI1056
I214833802
sI1057
I214834854
sI1058
I214834865
sI1059
I214834886
sI1060
I214834892
sI1061
I214834946
sI1062
I214835117
sI1063
I214835120
sI1064
I214835141
sI1065
I214835197
sI1066
I214835216
sI1067
I214835235
sI1068
I214835285
sI1069
I214835450
sI1070
I214835557
sI1071
I214835561
sI1072
I214835578
sI1073
I214835585
sI1074
I214835634
sI1075
I214835677
sI1076
I214835713
sI1077
I214835732
sI1078
I214835760
sI1079
I214835775
sI1080
I214835900
sI1081
I214836129
sI1082
I214836300
sI1083
I214836718
sI1084
I214836722
sI1085
I214836748
sI1086
I214836750
sI1087
I214836757
sI1088
I214836761
sI1089
I214836789
sI1090
I214836793
sI1091
I214836821
sI1092
I214836930
sI1093
I214836958
sI1094
I214836960
sI1095
I214836975
sI1096
I214837003
sI1097
I214837005
sI1098
I214837046
sI1099
I214837050
sI1100
I214837442
sI1101
I214837485
sI1102
I214837487
sI1103
I214837490
sI1104
I214837708
sI1105
I214837749
sI1106
I214837762
sI1107
I214837764
sI1108
I214837820
sI1109
I214838070
sI1110
I214838244
sI1111
I214838364
sI1112
I214838366
sI1113
I214838368
sI1114
I214838460
sI1115
I214838462
sI1116
I214838503
sI1117
I214838750
sI1118
I214838831
sI1119
I214838833
sI1120
I214838855
sI1121
I214838957
sI1122
I214839257
sI1123
I214839311
sI1124
I214839313
sI1125
I214839371
sI1126
I214839373
sI1127
I214839377
sI1128
I214839643
sI1129
I214839654
sI1130
I214839656
sI1131
I214839731
sI1132
I214839740
sI1133
I214839752
sI1134
I214839791
sI1135
I214839795
sI1136
I214839808
sI1137
I214839851
sI1138
I214839864
sI1139
I214839995
sI1140
I214839997
sI1141
I214839999
sI1142
I214840001
sI1143
I214840412
sI1144
I214840415
sI1145
I214840483
sI1146
I214840526
sI1147
I214840597
sI1148
I214840599
sI1149
I214840762
sI1150
I214840792
sI1151
I214840813
sI1152
I214840824
sI1153
I214840867
sI1154
I214840871
sI1155
I214840873
sI1156
I214840892
sI1157
I214840914
sI1158
I214841006
sI1159
I214841060
sI1160
I214841640
sI1161
I214842292
sI1162
I214842296
sI1163
I214842345
sI1164
I214842399
sI1165
I214842442
sI1166
I214842463
sI1167
I214842600
sI1168
I214843374
sI1169
I214843447
sI1170
I214843449
sI1171
I214843470
sI1172
I214843472
sI1173
I214843481
sI1174
I214843498
sI1175
I214843550
sI1176
I214843556
sI1177
I214843565
sI1178
I214843661
sI1179
I214843667
sI1180
I214843682
sI1181
I214843871
sI1182
I214844002
sI1183
I214844004
sI1184
I214844023
sI1185
I214844036
sI1186
I214844042
sI1187
I214844132
sI1188
I214844246
sI1189
I214844278
sI1190
I214844297
sI1191
I214844300
sI1192
I214844312
sI1193
I214844377
sI1194
I214973182
s.